

Microchip MPLAB XC8 Assembler V2.31 build 20201012212115 
                                                                                               Fri Jun 04 21:12:22 2021

Microchip MPLAB XC8 C Compiler v2.31 (Free license) build 20201012212115 Og1 
     1                           	processor	16F887
     2                           	pagewidth 120
     3                           	opt	flic
     4                           	psect	idataBANK0,global,class=CODE,delta=2,noexec
     5                           	psect	strings,global,class=STRING,delta=2,noexec
     6                           	psect	stringtext,global,reloc=256,class=STRCODE,delta=2,noexec
     7                           	psect	cinit,global,class=CODE,merge=1,delta=2
     8                           	psect	bssCOMMON,global,class=COMMON,space=1,delta=1,noexec
     9                           	psect	bssBANK0,global,class=BANK0,space=1,delta=1,noexec
    10                           	psect	dataBANK0,global,class=BANK0,space=1,delta=1,noexec
    11                           	psect	cstackCOMMON,global,class=COMMON,space=1,delta=1,noexec
    12                           	psect	cstackBANK0,global,class=BANK0,space=1,delta=1,noexec
    13                           	psect	maintext,global,class=CODE,split=1,delta=2
    14                           	psect	text1,local,class=CODE,merge=1,delta=2
    15                           	psect	text2,local,class=CODE,merge=1,delta=2
    16                           	psect	text3,local,class=CODE,merge=1,delta=2
    17                           	psect	text4,local,class=CODE,merge=1,delta=2
    18                           	psect	text5,local,class=CODE,merge=1,delta=2
    19                           	psect	text6,local,class=CODE,merge=1,delta=2
    20                           	psect	text7,local,class=CODE,merge=1,delta=2
    21                           	psect	text8,local,class=CODE,merge=1,delta=2
    22                           	psect	text9,local,class=CODE,merge=1,delta=2
    23                           	psect	text10,local,class=CODE,merge=1,delta=2
    24                           	psect	text11,local,class=CODE,merge=1,delta=2
    25                           	psect	text12,local,class=CODE,merge=1,delta=2
    26                           	psect	intentry,global,class=CODE,delta=2
    27                           	psect	text13,local,class=CODE,merge=1,delta=2
    28                           	psect	text14,local,class=CODE,merge=1,delta=2
    29                           	psect	text15,local,class=CODE,merge=1,delta=2
    30                           	psect	text16,local,class=CODE,merge=1,delta=2
    31                           	psect	text17,local,class=CODE,merge=1,delta=2
    32                           	psect	text18,local,class=CODE,merge=1,delta=2
    33                           	psect	text19,local,class=CODE,merge=1,delta=2
    34                           	psect	text20,local,class=CODE,merge=1,delta=2
    35                           	psect	config,global,abs,ovrld,class=CONFIG,space=4,delta=2,noexec
    36                           	dabs	1,0x7E,2
    37  0000                     
    38                           ; Version 2.20
    39                           ; Generated 12/02/2020 GMT
    40                           ; 
    41                           ; Copyright © 2020, Microchip Technology Inc. and its subsidiaries ("Microchip")
    42                           ; All rights reserved.
    43                           ; 
    44                           ; This software is developed by Microchip Technology Inc. and its subsidiaries ("Microch
      +                          ip").
    45                           ; 
    46                           ; Redistribution and use in source and binary forms, with or without modification, are
    47                           ; permitted provided that the following conditions are met:
    48                           ; 
    49                           ;     1. Redistributions of source code must retain the above copyright notice, this lis
      +                          t of
    50                           ;        conditions and the following disclaimer.
    51                           ; 
    52                           ;     2. Redistributions in binary form must reproduce the above copyright notice, this 
      +                          list
    53                           ;        of conditions and the following disclaimer in the documentation and/or other
    54                           ;        materials provided with the distribution.
    55                           ; 
    56                           ;     3. Microchip's name may not be used to endorse or promote products derived from th
      +                          is
    57                           ;        software without specific prior written permission.
    58                           ; 
    59                           ; THIS SOFTWARE IS PROVIDED BY MICROCHIP "AS IS" AND ANY EXPRESS OR IMPLIED WARRANTIES,
    60                           ; INCLUDING, BUT NOT LIMITED TO, THE IMPLIED WARRANTIES OF MERCHANTABILITY AND FITNESS F
      +                          OR
    61                           ; PURPOSE ARE DISCLAIMED.  IN NO EVENT SHALL MICROCHIP BE LIABLE FOR ANY DIRECT, INDIREC
      +                          T,
    62                           ; INCIDENTAL, SPECIAL, EXEMPLARY, OR CONSEQUENTIAL DAMAGES (INCLUDING BUT NOT LIMITED TO
    63                           ; PROCUREMENT OF SUBSTITUTE GOODS OR SERVICES; LOSS OF USE, DATA OR PROFITS; OR BUSINESS
    64                           ; INTERRUPTION) HOWSOEVER CAUSED AND ON ANY THEORY OF LIABILITY, WHETHER IN CONTRACT, ST
      +                          RICT
    65                           ; LIABILITY, OR TORT (INCLUDING NEGLIGENCE OR OTHERWISE) ARISING IN ANY WAY OUT OF THE U
      +                          SE OF
    66                           ; THIS SOFTWARE, EVEN IF ADVISED OF THE POSSIBILITY OF SUCH DAMAGE.
    67                           ; 
    68                           ; 
    69                           ; Code-generator required, PIC16F887 Definitions
    70                           ; 
    71                           ; SFR Addresses
    72  0000                     	;# 
    73  0001                     	;# 
    74  0002                     	;# 
    75  0003                     	;# 
    76  0004                     	;# 
    77  0005                     	;# 
    78  0006                     	;# 
    79  0007                     	;# 
    80  0008                     	;# 
    81  0009                     	;# 
    82  000A                     	;# 
    83  000B                     	;# 
    84  000C                     	;# 
    85  000D                     	;# 
    86  000E                     	;# 
    87  000E                     	;# 
    88  000F                     	;# 
    89  0010                     	;# 
    90  0011                     	;# 
    91  0012                     	;# 
    92  0013                     	;# 
    93  0014                     	;# 
    94  0015                     	;# 
    95  0015                     	;# 
    96  0016                     	;# 
    97  0017                     	;# 
    98  0018                     	;# 
    99  0019                     	;# 
   100  001A                     	;# 
   101  001B                     	;# 
   102  001B                     	;# 
   103  001C                     	;# 
   104  001D                     	;# 
   105  001E                     	;# 
   106  001F                     	;# 
   107  0081                     	;# 
   108  0085                     	;# 
   109  0086                     	;# 
   110  0087                     	;# 
   111  0088                     	;# 
   112  0089                     	;# 
   113  008C                     	;# 
   114  008D                     	;# 
   115  008E                     	;# 
   116  008F                     	;# 
   117  0090                     	;# 
   118  0091                     	;# 
   119  0092                     	;# 
   120  0093                     	;# 
   121  0093                     	;# 
   122  0093                     	;# 
   123  0094                     	;# 
   124  0095                     	;# 
   125  0096                     	;# 
   126  0097                     	;# 
   127  0098                     	;# 
   128  0099                     	;# 
   129  009A                     	;# 
   130  009B                     	;# 
   131  009C                     	;# 
   132  009D                     	;# 
   133  009E                     	;# 
   134  009F                     	;# 
   135  0105                     	;# 
   136  0107                     	;# 
   137  0108                     	;# 
   138  0109                     	;# 
   139  010C                     	;# 
   140  010C                     	;# 
   141  010D                     	;# 
   142  010E                     	;# 
   143  010F                     	;# 
   144  0185                     	;# 
   145  0187                     	;# 
   146  0188                     	;# 
   147  0189                     	;# 
   148  018C                     	;# 
   149  018D                     	;# 
   150  0000                     	;# 
   151  0001                     	;# 
   152  0002                     	;# 
   153  0003                     	;# 
   154  0004                     	;# 
   155  0005                     	;# 
   156  0006                     	;# 
   157  0007                     	;# 
   158  0008                     	;# 
   159  0009                     	;# 
   160  000A                     	;# 
   161  000B                     	;# 
   162  000C                     	;# 
   163  000D                     	;# 
   164  000E                     	;# 
   165  000E                     	;# 
   166  000F                     	;# 
   167  0010                     	;# 
   168  0011                     	;# 
   169  0012                     	;# 
   170  0013                     	;# 
   171  0014                     	;# 
   172  0015                     	;# 
   173  0015                     	;# 
   174  0016                     	;# 
   175  0017                     	;# 
   176  0018                     	;# 
   177  0019                     	;# 
   178  001A                     	;# 
   179  001B                     	;# 
   180  001B                     	;# 
   181  001C                     	;# 
   182  001D                     	;# 
   183  001E                     	;# 
   184  001F                     	;# 
   185  0081                     	;# 
   186  0085                     	;# 
   187  0086                     	;# 
   188  0087                     	;# 
   189  0088                     	;# 
   190  0089                     	;# 
   191  008C                     	;# 
   192  008D                     	;# 
   193  008E                     	;# 
   194  008F                     	;# 
   195  0090                     	;# 
   196  0091                     	;# 
   197  0092                     	;# 
   198  0093                     	;# 
   199  0093                     	;# 
   200  0093                     	;# 
   201  0094                     	;# 
   202  0095                     	;# 
   203  0096                     	;# 
   204  0097                     	;# 
   205  0098                     	;# 
   206  0099                     	;# 
   207  009A                     	;# 
   208  009B                     	;# 
   209  009C                     	;# 
   210  009D                     	;# 
   211  009E                     	;# 
   212  009F                     	;# 
   213  0105                     	;# 
   214  0107                     	;# 
   215  0108                     	;# 
   216  0109                     	;# 
   217  010C                     	;# 
   218  010C                     	;# 
   219  010D                     	;# 
   220  010E                     	;# 
   221  010F                     	;# 
   222  0185                     	;# 
   223  0187                     	;# 
   224  0188                     	;# 
   225  0189                     	;# 
   226  018C                     	;# 
   227  018D                     	;# 
   228                           
   229                           	psect	idataBANK0
   230  07FC                     __pidataBANK0:
   231                           
   232                           ;initializer for _ban
   233  07FC  3401               	retlw	1
   234  07FD  3400               	retlw	0
   235  0007                     _PORTCbits	set	7
   236  000B                     _INTCONbits	set	11
   237  0018                     _RCSTAbits	set	24
   238  0012                     _T2CONbits	set	18
   239  0001                     _TMR0	set	1
   240  0008                     _PORTD	set	8
   241  0007                     _PORTC	set	7
   242  0006                     _PORTB	set	6
   243  0005                     _PORTA	set	5
   244  0019                     _TXREG	set	25
   245  001D                     _CCP2CONbits	set	29
   246  001B                     _CCPR2L	set	27
   247  0017                     _CCP1CONbits	set	23
   248  0015                     _CCPR1L	set	21
   249  001F                     _ADCON0bits	set	31
   250  001E                     _ADRESH	set	30
   251  0008                     _PORTDbits	set	8
   252  0006                     _PORTBbits	set	6
   253  001A                     _RCREG	set	26
   254  000C                     _PIR1bits	set	12
   255  0064                     _TXIF	set	100
   256  0058                     _RBIF	set	88
   257  008C                     _PIE1bits	set	140
   258  0096                     _IOCBbits	set	150
   259  0095                     _WPUBbits	set	149
   260  009A                     _SPBRGH	set	154
   261  0099                     _SPBRG	set	153
   262  0098                     _TXSTAbits	set	152
   263  0092                     _PR2	set	146
   264  009F                     _ADCON1bits	set	159
   265  0081                     _OPTION_REGbits	set	129
   266  008F                     _OSCCONbits	set	143
   267  0087                     _TRISCbits	set	135
   268  0088                     _TRISD	set	136
   269  0087                     _TRISC	set	135
   270  0089                     _TRISE	set	137
   271  0086                     _TRISB	set	134
   272  0085                     _TRISA	set	133
   273  009E                     _ADRESL	set	158
   274  0187                     _BAUDCTLbits	set	391
   275  0189                     _ANSELH	set	393
   276  0188                     _ANSEL	set	392
   277                           
   278                           	psect	strings
   279  07E0                     __pstrings:
   280  07E0                     stringtab:
   281  07E0                     __stringtab:
   282                           
   283                           ;	String table - string pointers are 2 bytes each
   284  07E0  1BFF               	btfsc	btemp+1,7
   285  07E1  2FEA               	ljmp	stringcode
   286  07E2  1383               	bcf	3,7
   287  07E3  187F               	btfsc	btemp+1,0
   288  07E4  1783               	bsf	3,7
   289  07E5  0800               	movf	0,w
   290  07E6  0A84               	incf	4,f
   291  07E7  1903               	skipnz
   292  07E8  0AFF               	incf	btemp+1,f
   293  07E9  0008               	return
   294  07EA                     stringcode:
   295  07EA  087F               	movf	btemp+1,w
   296  07EB  397F               	andlw	127
   297  07EC  008A               	movwf	10
   298  07ED  0804               	movf	4,w
   299  07EE  0A84               	incf	4,f
   300  07EF  1903               	skipnz
   301  07F0  0AFF               	incf	btemp+1,f
   302  07F1  0082               	movwf	2
   303  07F2                     __stringbase:
   304  07F2                     __end_of__stringtab:
   305                           
   306                           	psect	stringtext
   307  0300                     __pstringtext:
   308  0300                     STR_6:
   309  0300  3428               	retlw	40	;'('
   310  0301  3434               	retlw	52	;'4'
   311  0302  3429               	retlw	41	;')'
   312  0303  3420               	retlw	32	;' '
   313  0304  344D               	retlw	77	;'M'
   314  0305  346F               	retlw	111	;'o'
   315  0306  3476               	retlw	118	;'v'
   316  0307  3465               	retlw	101	;'e'
   317  0308  3472               	retlw	114	;'r'
   318  0309  3420               	retlw	32	;' '
   319  030A  3470               	retlw	112	;'p'
   320  030B  3469               	retlw	105	;'i'
   321  030C  3465               	retlw	101	;'e'
   322  030D  3472               	retlw	114	;'r'
   323  030E  346E               	retlw	110	;'n'
   324  030F  3461               	retlw	97	;'a'
   325  0310  3420               	retlw	32	;' '
   326  0311  3469               	retlw	105	;'i'
   327  0312  347A               	retlw	122	;'z'
   328  0313  3471               	retlw	113	;'q'
   329  0314  3475               	retlw	117	;'u'
   330  0315  3469               	retlw	105	;'i'
   331  0316  3465               	retlw	101	;'e'
   332  0317  3472               	retlw	114	;'r'
   333  0318  3464               	retlw	100	;'d'
   334  0319  346F               	retlw	111	;'o'
   335  031A  3420               	retlw	32	;' '
   336  031B  3461               	retlw	97	;'a'
   337  031C  3420               	retlw	32	;' '
   338  031D  3439               	retlw	57	;'9'
   339  031E  3430               	retlw	48	;'0'
   340  031F  3420               	retlw	32	;' '
   341  0320  340D               	retlw	13
   342  0321  3420               	retlw	32	;' '
   343  0322  340D               	retlw	13
   344  0323  3400               	retlw	0
   345  0324                     STR_5:
   346  0324  3428               	retlw	40	;'('
   347  0325  3433               	retlw	51	;'3'
   348  0326  3429               	retlw	41	;')'
   349  0327  3420               	retlw	32	;' '
   350  0328  344D               	retlw	77	;'M'
   351  0329  346F               	retlw	111	;'o'
   352  032A  3476               	retlw	118	;'v'
   353  032B  3465               	retlw	101	;'e'
   354  032C  3472               	retlw	114	;'r'
   355  032D  3420               	retlw	32	;' '
   356  032E  3470               	retlw	112	;'p'
   357  032F  3469               	retlw	105	;'i'
   358  0330  3465               	retlw	101	;'e'
   359  0331  3472               	retlw	114	;'r'
   360  0332  346E               	retlw	110	;'n'
   361  0333  3461               	retlw	97	;'a'
   362  0334  3420               	retlw	32	;' '
   363  0335  3469               	retlw	105	;'i'
   364  0336  347A               	retlw	122	;'z'
   365  0337  3471               	retlw	113	;'q'
   366  0338  3475               	retlw	117	;'u'
   367  0339  3469               	retlw	105	;'i'
   368  033A  3465               	retlw	101	;'e'
   369  033B  3472               	retlw	114	;'r'
   370  033C  3464               	retlw	100	;'d'
   371  033D  346F               	retlw	111	;'o'
   372  033E  3420               	retlw	32	;' '
   373  033F  3461               	retlw	97	;'a'
   374  0340  3420               	retlw	32	;' '
   375  0341  3430               	retlw	48	;'0'
   376  0342  3420               	retlw	32	;' '
   377  0343  340D               	retlw	13
   378  0344  3400               	retlw	0
   379  0345                     STR_11:
   380  0345  3428               	retlw	40	;'('
   381  0346  3438               	retlw	56	;'8'
   382  0347  3429               	retlw	41	;')'
   383  0348  3420               	retlw	32	;' '
   384  0349  344D               	retlw	77	;'M'
   385  034A  346F               	retlw	111	;'o'
   386  034B  3476               	retlw	118	;'v'
   387  034C  3465               	retlw	101	;'e'
   388  034D  3472               	retlw	114	;'r'
   389  034E  3420               	retlw	32	;' '
   390  034F  3470               	retlw	112	;'p'
   391  0350  3469               	retlw	105	;'i'
   392  0351  3465               	retlw	101	;'e'
   393  0352  3472               	retlw	114	;'r'
   394  0353  346E               	retlw	110	;'n'
   395  0354  3461               	retlw	97	;'a'
   396  0355  3420               	retlw	32	;' '
   397  0356  3464               	retlw	100	;'d'
   398  0357  3465               	retlw	101	;'e'
   399  0358  3472               	retlw	114	;'r'
   400  0359  3465               	retlw	101	;'e'
   401  035A  3463               	retlw	99	;'c'
   402  035B  3468               	retlw	104	;'h'
   403  035C  346F               	retlw	111	;'o'
   404  035D  3420               	retlw	32	;' '
   405  035E  3461               	retlw	97	;'a'
   406  035F  3420               	retlw	32	;' '
   407  0360  3439               	retlw	57	;'9'
   408  0361  3430               	retlw	48	;'0'
   409  0362  340D               	retlw	13
   410  0363  340D               	retlw	13
   411  0364  3400               	retlw	0
   412  0365                     STR_4:
   413  0365  3428               	retlw	40	;'('
   414  0366  3432               	retlw	50	;'2'
   415  0367  3429               	retlw	41	;')'
   416  0368  3420               	retlw	32	;' '
   417  0369  344D               	retlw	77	;'M'
   418  036A  346F               	retlw	111	;'o'
   419  036B  3476               	retlw	118	;'v'
   420  036C  3465               	retlw	101	;'e'
   421  036D  3472               	retlw	114	;'r'
   422  036E  3420               	retlw	32	;' '
   423  036F  3470               	retlw	112	;'p'
   424  0370  3469               	retlw	105	;'i'
   425  0371  3465               	retlw	101	;'e'
   426  0372  3420               	retlw	32	;' '
   427  0373  3469               	retlw	105	;'i'
   428  0374  347A               	retlw	122	;'z'
   429  0375  3471               	retlw	113	;'q'
   430  0376  3475               	retlw	117	;'u'
   431  0377  3469               	retlw	105	;'i'
   432  0378  3465               	retlw	101	;'e'
   433  0379  3472               	retlw	114	;'r'
   434  037A  3464               	retlw	100	;'d'
   435  037B  346F               	retlw	111	;'o'
   436  037C  3420               	retlw	32	;' '
   437  037D  3461               	retlw	97	;'a'
   438  037E  3420               	retlw	32	;' '
   439  037F  3439               	retlw	57	;'9'
   440  0380  3430               	retlw	48	;'0'
   441  0381  3420               	retlw	32	;' '
   442  0382  340D               	retlw	13
   443  0383  3400               	retlw	0
   444  0384                     STR_10:
   445  0384  3428               	retlw	40	;'('
   446  0385  3437               	retlw	55	;'7'
   447  0386  3429               	retlw	41	;')'
   448  0387  3420               	retlw	32	;' '
   449  0388  344D               	retlw	77	;'M'
   450  0389  346F               	retlw	111	;'o'
   451  038A  3476               	retlw	118	;'v'
   452  038B  3465               	retlw	101	;'e'
   453  038C  3472               	retlw	114	;'r'
   454  038D  3420               	retlw	32	;' '
   455  038E  3470               	retlw	112	;'p'
   456  038F  3469               	retlw	105	;'i'
   457  0390  3465               	retlw	101	;'e'
   458  0391  3472               	retlw	114	;'r'
   459  0392  346E               	retlw	110	;'n'
   460  0393  3461               	retlw	97	;'a'
   461  0394  3420               	retlw	32	;' '
   462  0395  3464               	retlw	100	;'d'
   463  0396  3465               	retlw	101	;'e'
   464  0397  3472               	retlw	114	;'r'
   465  0398  3465               	retlw	101	;'e'
   466  0399  3463               	retlw	99	;'c'
   467  039A  3468               	retlw	104	;'h'
   468  039B  346F               	retlw	111	;'o'
   469  039C  3420               	retlw	32	;' '
   470  039D  3461               	retlw	97	;'a'
   471  039E  3420               	retlw	32	;' '
   472  039F  3430               	retlw	48	;'0'
   473  03A0  340D               	retlw	13
   474  03A1  3400               	retlw	0
   475  03A2                     STR_3:
   476  03A2  3428               	retlw	40	;'('
   477  03A3  3431               	retlw	49	;'1'
   478  03A4  3429               	retlw	41	;')'
   479  03A5  3420               	retlw	32	;' '
   480  03A6  344D               	retlw	77	;'M'
   481  03A7  346F               	retlw	111	;'o'
   482  03A8  3476               	retlw	118	;'v'
   483  03A9  3465               	retlw	101	;'e'
   484  03AA  3472               	retlw	114	;'r'
   485  03AB  3420               	retlw	32	;' '
   486  03AC  3470               	retlw	112	;'p'
   487  03AD  3469               	retlw	105	;'i'
   488  03AE  3465               	retlw	101	;'e'
   489  03AF  3420               	retlw	32	;' '
   490  03B0  3469               	retlw	105	;'i'
   491  03B1  347A               	retlw	122	;'z'
   492  03B2  3471               	retlw	113	;'q'
   493  03B3  3475               	retlw	117	;'u'
   494  03B4  3469               	retlw	105	;'i'
   495  03B5  3465               	retlw	101	;'e'
   496  03B6  3472               	retlw	114	;'r'
   497  03B7  3464               	retlw	100	;'d'
   498  03B8  346F               	retlw	111	;'o'
   499  03B9  3420               	retlw	32	;' '
   500  03BA  3461               	retlw	97	;'a'
   501  03BB  3420               	retlw	32	;' '
   502  03BC  3430               	retlw	48	;'0'
   503  03BD  340D               	retlw	13
   504  03BE  3400               	retlw	0
   505  03BF                     STR_9:
   506  03BF  3428               	retlw	40	;'('
   507  03C0  3436               	retlw	54	;'6'
   508  03C1  3429               	retlw	41	;')'
   509  03C2  3420               	retlw	32	;' '
   510  03C3  344D               	retlw	77	;'M'
   511  03C4  346F               	retlw	111	;'o'
   512  03C5  3476               	retlw	118	;'v'
   513  03C6  3465               	retlw	101	;'e'
   514  03C7  3472               	retlw	114	;'r'
   515  03C8  3420               	retlw	32	;' '
   516  03C9  3470               	retlw	112	;'p'
   517  03CA  3469               	retlw	105	;'i'
   518  03CB  3465               	retlw	101	;'e'
   519  03CC  3420               	retlw	32	;' '
   520  03CD  3464               	retlw	100	;'d'
   521  03CE  3465               	retlw	101	;'e'
   522  03CF  3472               	retlw	114	;'r'
   523  03D0  3465               	retlw	101	;'e'
   524  03D1  3463               	retlw	99	;'c'
   525  03D2  3468               	retlw	104	;'h'
   526  03D3  346F               	retlw	111	;'o'
   527  03D4  3420               	retlw	32	;' '
   528  03D5  3461               	retlw	97	;'a'
   529  03D6  3420               	retlw	32	;' '
   530  03D7  3439               	retlw	57	;'9'
   531  03D8  3430               	retlw	48	;'0'
   532  03D9  340D               	retlw	13
   533  03DA  3400               	retlw	0
   534  03DB                     STR_1:
   535  03DB  3451               	retlw	81	;'Q'
   536  03DC  3475               	retlw	117	;'u'
   537  03DD  3465               	retlw	101	;'e'
   538  03DE  3420               	retlw	32	;' '
   539  03DF  3461               	retlw	97	;'a'
   540  03E0  3463               	retlw	99	;'c'
   541  03E1  3463               	retlw	99	;'c'
   542  03E2  3469               	retlw	105	;'i'
   543  03E3  346F               	retlw	111	;'o'
   544  03E4  346E               	retlw	110	;'n'
   545  03E5  3420               	retlw	32	;' '
   546  03E6  3464               	retlw	100	;'d'
   547  03E7  3465               	retlw	101	;'e'
   548  03E8  3473               	retlw	115	;'s'
   549  03E9  3461               	retlw	97	;'a'
   550  03EA  3473               	retlw	115	;'s'
   551  03EB  3420               	retlw	32	;' '
   552  03EC  3465               	retlw	101	;'e'
   553  03ED  346A               	retlw	106	;'j'
   554  03EE  3465               	retlw	101	;'e'
   555  03EF  3463               	retlw	99	;'c'
   556  03F0  3475               	retlw	117	;'u'
   557  03F1  3474               	retlw	116	;'t'
   558  03F2  3461               	retlw	97	;'a'
   559  03F3  3472               	retlw	114	;'r'
   560  03F4  343F               	retlw	63	;'?'
   561  03F5  340D               	retlw	13
   562  03F6  3400               	retlw	0
   563  03F7                     STR_8:
   564  03F7  3428               	retlw	40	;'('
   565  03F8  3435               	retlw	53	;'5'
   566  03F9  3429               	retlw	41	;')'
   567  03FA  3420               	retlw	32	;' '
   568  03FB  344D               	retlw	77	;'M'
   569  03FC  346F               	retlw	111	;'o'
   570  03FD  3476               	retlw	118	;'v'
   571  03FE  3465               	retlw	101	;'e'
   572  03FF  3472               	retlw	114	;'r'
   573  0400  3420               	retlw	32	;' '
   574  0401  3470               	retlw	112	;'p'
   575  0402  3469               	retlw	105	;'i'
   576  0403  3465               	retlw	101	;'e'
   577  0404  3420               	retlw	32	;' '
   578  0405  3464               	retlw	100	;'d'
   579  0406  3465               	retlw	101	;'e'
   580  0407  3472               	retlw	114	;'r'
   581  0408  3465               	retlw	101	;'e'
   582  0409  3463               	retlw	99	;'c'
   583  040A  3468               	retlw	104	;'h'
   584  040B  346F               	retlw	111	;'o'
   585  040C  3420               	retlw	32	;' '
   586  040D  3461               	retlw	97	;'a'
   587  040E  3420               	retlw	32	;' '
   588  040F  3430               	retlw	48	;'0'
   589  0410  340D               	retlw	13
   590  0411  3400               	retlw	0
   591  0412                     STR_15:
   592  0412  3447               	retlw	71	;'G'
   593  0413  3469               	retlw	105	;'i'
   594  0414  3472               	retlw	114	;'r'
   595  0415  3461               	retlw	97	;'a'
   596  0416  346E               	retlw	110	;'n'
   597  0417  3464               	retlw	100	;'d'
   598  0418  346F               	retlw	111	;'o'
   599  0419  3420               	retlw	32	;' '
   600  041A  3470               	retlw	112	;'p'
   601  041B  3469               	retlw	105	;'i'
   602  041C  3465               	retlw	101	;'e'
   603  041D  3472               	retlw	114	;'r'
   604  041E  346E               	retlw	110	;'n'
   605  041F  3461               	retlw	97	;'a'
   606  0420  3420               	retlw	32	;' '
   607  0421  3449               	retlw	73	;'I'
   608  0422  347A               	retlw	122	;'z'
   609  0423  3471               	retlw	113	;'q'
   610  0424  3420               	retlw	32	;' '
   611  0425  3461               	retlw	97	;'a'
   612  0426  3420               	retlw	32	;' '
   613  0427  3439               	retlw	57	;'9'
   614  0428  3430               	retlw	48	;'0'
   615  0429  3400               	retlw	0
   616  042A                     STR_19:
   617  042A  3447               	retlw	71	;'G'
   618  042B  3469               	retlw	105	;'i'
   619  042C  3472               	retlw	114	;'r'
   620  042D  3461               	retlw	97	;'a'
   621  042E  346E               	retlw	110	;'n'
   622  042F  3464               	retlw	100	;'d'
   623  0430  346F               	retlw	111	;'o'
   624  0431  3420               	retlw	32	;' '
   625  0432  3470               	retlw	112	;'p'
   626  0433  3469               	retlw	105	;'i'
   627  0434  3465               	retlw	101	;'e'
   628  0435  3472               	retlw	114	;'r'
   629  0436  346E               	retlw	110	;'n'
   630  0437  3461               	retlw	97	;'a'
   631  0438  3420               	retlw	32	;' '
   632  0439  3464               	retlw	100	;'d'
   633  043A  3465               	retlw	101	;'e'
   634  043B  3472               	retlw	114	;'r'
   635  043C  3420               	retlw	32	;' '
   636  043D  3461               	retlw	97	;'a'
   637  043E  3420               	retlw	32	;' '
   638  043F  3439               	retlw	57	;'9'
   639  0440  3430               	retlw	48	;'0'
   640  0441  3400               	retlw	0
   641  0442                     STR_14:
   642  0442  3447               	retlw	71	;'G'
   643  0443  3469               	retlw	105	;'i'
   644  0444  3472               	retlw	114	;'r'
   645  0445  3461               	retlw	97	;'a'
   646  0446  346E               	retlw	110	;'n'
   647  0447  3464               	retlw	100	;'d'
   648  0448  346F               	retlw	111	;'o'
   649  0449  3420               	retlw	32	;' '
   650  044A  3470               	retlw	112	;'p'
   651  044B  3469               	retlw	105	;'i'
   652  044C  3465               	retlw	101	;'e'
   653  044D  3472               	retlw	114	;'r'
   654  044E  346E               	retlw	110	;'n'
   655  044F  3461               	retlw	97	;'a'
   656  0450  3420               	retlw	32	;' '
   657  0451  3449               	retlw	73	;'I'
   658  0452  347A               	retlw	122	;'z'
   659  0453  3471               	retlw	113	;'q'
   660  0454  3420               	retlw	32	;' '
   661  0455  3461               	retlw	97	;'a'
   662  0456  3420               	retlw	32	;' '
   663  0457  3430               	retlw	48	;'0'
   664  0458  3400               	retlw	0
   665  0459                     STR_18:
   666  0459  3447               	retlw	71	;'G'
   667  045A  3469               	retlw	105	;'i'
   668  045B  3472               	retlw	114	;'r'
   669  045C  3461               	retlw	97	;'a'
   670  045D  346E               	retlw	110	;'n'
   671  045E  3464               	retlw	100	;'d'
   672  045F  346F               	retlw	111	;'o'
   673  0460  3420               	retlw	32	;' '
   674  0461  3470               	retlw	112	;'p'
   675  0462  3469               	retlw	105	;'i'
   676  0463  3465               	retlw	101	;'e'
   677  0464  3472               	retlw	114	;'r'
   678  0465  346E               	retlw	110	;'n'
   679  0466  3461               	retlw	97	;'a'
   680  0467  3420               	retlw	32	;' '
   681  0468  3464               	retlw	100	;'d'
   682  0469  3465               	retlw	101	;'e'
   683  046A  3472               	retlw	114	;'r'
   684  046B  3420               	retlw	32	;' '
   685  046C  3461               	retlw	97	;'a'
   686  046D  3420               	retlw	32	;' '
   687  046E  3430               	retlw	48	;'0'
   688  046F  3400               	retlw	0
   689  0470                     STR_17:
   690  0470  3447               	retlw	71	;'G'
   691  0471  3469               	retlw	105	;'i'
   692  0472  3472               	retlw	114	;'r'
   693  0473  3461               	retlw	97	;'a'
   694  0474  346E               	retlw	110	;'n'
   695  0475  3464               	retlw	100	;'d'
   696  0476  346F               	retlw	111	;'o'
   697  0477  3420               	retlw	32	;' '
   698  0478  3470               	retlw	112	;'p'
   699  0479  3469               	retlw	105	;'i'
   700  047A  3465               	retlw	101	;'e'
   701  047B  3472               	retlw	114	;'r'
   702  047C  3420               	retlw	32	;' '
   703  047D  3449               	retlw	73	;'I'
   704  047E  347A               	retlw	122	;'z'
   705  047F  3471               	retlw	113	;'q'
   706  0480  3420               	retlw	32	;' '
   707  0481  3461               	retlw	97	;'a'
   708  0482  3420               	retlw	32	;' '
   709  0483  3439               	retlw	57	;'9'
   710  0484  3430               	retlw	48	;'0'
   711  0485  3400               	retlw	0
   712  0486                     STR_21:
   713  0486  3447               	retlw	71	;'G'
   714  0487  3469               	retlw	105	;'i'
   715  0488  3472               	retlw	114	;'r'
   716  0489  3461               	retlw	97	;'a'
   717  048A  346E               	retlw	110	;'n'
   718  048B  3464               	retlw	100	;'d'
   719  048C  346F               	retlw	111	;'o'
   720  048D  3420               	retlw	32	;' '
   721  048E  3470               	retlw	112	;'p'
   722  048F  3469               	retlw	105	;'i'
   723  0490  3465               	retlw	101	;'e'
   724  0491  3472               	retlw	114	;'r'
   725  0492  3420               	retlw	32	;' '
   726  0493  3464               	retlw	100	;'d'
   727  0494  3465               	retlw	101	;'e'
   728  0495  3472               	retlw	114	;'r'
   729  0496  3420               	retlw	32	;' '
   730  0497  3461               	retlw	97	;'a'
   731  0498  3420               	retlw	32	;' '
   732  0499  3439               	retlw	57	;'9'
   733  049A  3430               	retlw	48	;'0'
   734  049B  3400               	retlw	0
   735  049C                     STR_16:
   736  049C  3447               	retlw	71	;'G'
   737  049D  3469               	retlw	105	;'i'
   738  049E  3472               	retlw	114	;'r'
   739  049F  3461               	retlw	97	;'a'
   740  04A0  346E               	retlw	110	;'n'
   741  04A1  3464               	retlw	100	;'d'
   742  04A2  346F               	retlw	111	;'o'
   743  04A3  3420               	retlw	32	;' '
   744  04A4  3470               	retlw	112	;'p'
   745  04A5  3469               	retlw	105	;'i'
   746  04A6  3465               	retlw	101	;'e'
   747  04A7  3472               	retlw	114	;'r'
   748  04A8  3420               	retlw	32	;' '
   749  04A9  3449               	retlw	73	;'I'
   750  04AA  347A               	retlw	122	;'z'
   751  04AB  3471               	retlw	113	;'q'
   752  04AC  3420               	retlw	32	;' '
   753  04AD  3461               	retlw	97	;'a'
   754  04AE  3420               	retlw	32	;' '
   755  04AF  3430               	retlw	48	;'0'
   756  04B0  3400               	retlw	0
   757  04B1                     STR_20:
   758  04B1  3447               	retlw	71	;'G'
   759  04B2  3469               	retlw	105	;'i'
   760  04B3  3472               	retlw	114	;'r'
   761  04B4  3461               	retlw	97	;'a'
   762  04B5  346E               	retlw	110	;'n'
   763  04B6  3464               	retlw	100	;'d'
   764  04B7  346F               	retlw	111	;'o'
   765  04B8  3420               	retlw	32	;' '
   766  04B9  3470               	retlw	112	;'p'
   767  04BA  3469               	retlw	105	;'i'
   768  04BB  3465               	retlw	101	;'e'
   769  04BC  3472               	retlw	114	;'r'
   770  04BD  3420               	retlw	32	;' '
   771  04BE  3464               	retlw	100	;'d'
   772  04BF  3465               	retlw	101	;'e'
   773  04C0  3472               	retlw	114	;'r'
   774  04C1  3420               	retlw	32	;' '
   775  04C2  3461               	retlw	97	;'a'
   776  04C3  3420               	retlw	32	;' '
   777  04C4  3430               	retlw	48	;'0'
   778  04C5  3400               	retlw	0
   779  04C6                     STR_13:
   780  04C6  3428               	retlw	40	;'('
   781  04C7  3439               	retlw	57	;'9'
   782  04C8  3429               	retlw	41	;')'
   783  04C9  3420               	retlw	32	;' '
   784  04CA  344C               	retlw	76	;'L'
   785  04CB  3465               	retlw	101	;'e'
   786  04CC  3465               	retlw	101	;'e'
   787  04CD  3472               	retlw	114	;'r'
   788  04CE  3420               	retlw	32	;' '
   789  04CF  346C               	retlw	108	;'l'
   790  04D0  346F               	retlw	111	;'o'
   791  04D1  3473               	retlw	115	;'s'
   792  04D2  3420               	retlw	32	;' '
   793  04D3  3464               	retlw	100	;'d'
   794  04D4  3461               	retlw	97	;'a'
   795  04D5  3474               	retlw	116	;'t'
   796  04D6  346F               	retlw	111	;'o'
   797  04D7  3473               	retlw	115	;'s'
   798  04D8  3400               	retlw	0
   799  04D9                     STR_2:
   800  04D9  344C               	retlw	76	;'L'
   801  04DA  3461               	retlw	97	;'a'
   802  04DB  3464               	retlw	100	;'d'
   803  04DC  346F               	retlw	111	;'o'
   804  04DD  3420               	retlw	32	;' '
   805  04DE  3469               	retlw	105	;'i'
   806  04DF  347A               	retlw	122	;'z'
   807  04E0  3471               	retlw	113	;'q'
   808  04E1  3475               	retlw	117	;'u'
   809  04E2  3469               	retlw	105	;'i'
   810  04E3  3465               	retlw	101	;'e'
   811  04E4  3472               	retlw	114	;'r'
   812  04E5  3464               	retlw	100	;'d'
   813  04E6  346F               	retlw	111	;'o'
   814  04E7  340D               	retlw	13
   815  04E8  3400               	retlw	0
   816  04E9                     STR_7:
   817  04E9  344C               	retlw	76	;'L'
   818  04EA  3461               	retlw	97	;'a'
   819  04EB  3464               	retlw	100	;'d'
   820  04EC  346F               	retlw	111	;'o'
   821  04ED  3420               	retlw	32	;' '
   822  04EE  3444               	retlw	68	;'D'
   823  04EF  3465               	retlw	101	;'e'
   824  04F0  3472               	retlw	114	;'r'
   825  04F1  3465               	retlw	101	;'e'
   826  04F2  3463               	retlw	99	;'c'
   827  04F3  3468               	retlw	104	;'h'
   828  04F4  346F               	retlw	111	;'o'
   829  04F5  340D               	retlw	13
   830  04F6  3400               	retlw	0
   831  04F7                     STR_12:
   832  04F7  3444               	retlw	68	;'D'
   833  04F8  3461               	retlw	97	;'a'
   834  04F9  3474               	retlw	116	;'t'
   835  04FA  346F               	retlw	111	;'o'
   836  04FB  3473               	retlw	115	;'s'
   837  04FC  340D               	retlw	13
   838  04FD  3400               	retlw	0
   839  04D3                     
   840                           	psect	cinit
   841  000F                     start_initialization:	
   842                           ; #config settings
   843                           
   844  000F                     __initialization:
   845                           
   846                           ; Initialize objects allocated to BANK0
   847  000F  120A  118A  27FC  120A  118A  	fcall	__pidataBANK0	;fetch initializer
   848  0014  00AF               	movwf	__pdataBANK0& (0+127)
   849  0015  120A  118A  27FD  120A  118A  	fcall	__pidataBANK0+1	;fetch initializer
   850  001A  00B0               	movwf	(__pdataBANK0+1)& (0+127)
   851                           
   852                           ; Clear objects allocated to BANK0
   853  001B  01AB               	clrf	__pbssBANK0& (0+127)
   854  001C  01AC               	clrf	(__pbssBANK0+1)& (0+127)
   855  001D  01AD               	clrf	(__pbssBANK0+2)& (0+127)
   856  001E  01AE               	clrf	(__pbssBANK0+3)& (0+127)
   857                           
   858                           ; Clear objects allocated to COMMON
   859  001F  01F8               	clrf	__pbssCOMMON& (0+127)
   860  0020  01F9               	clrf	(__pbssCOMMON+1)& (0+127)
   861  0021  01FA               	clrf	(__pbssCOMMON+2)& (0+127)
   862  0022  01FB               	clrf	(__pbssCOMMON+3)& (0+127)
   863  0023  01FC               	clrf	(__pbssCOMMON+4)& (0+127)
   864  0024  01FD               	clrf	(__pbssCOMMON+5)& (0+127)
   865  0025                     end_of_initialization:	
   866                           ;End of C runtime variable initialization code
   867                           
   868  0025                     __end_of__initialization:
   869  0025  0183               	clrf	3
   870  0026  120A  118A  2829   	ljmp	_main	;jump to C main() function
   871                           
   872                           	psect	bssCOMMON
   873  0078                     __pbssCOMMON:
   874  0078                     _rec:
   875  0078                     	ds	2
   876  007A                     _adc4:
   877  007A                     	ds	1
   878  007B                     _adc3:
   879  007B                     	ds	1
   880  007C                     _adc2:
   881  007C                     	ds	1
   882  007D                     _adc1:
   883  007D                     	ds	1
   884                           
   885                           	psect	bssBANK0
   886  002B                     __pbssBANK0:
   887  002B                     _op:
   888  002B                     	ds	2
   889  002D                     _play:
   890  002D                     	ds	2
   891                           
   892                           	psect	dataBANK0
   893  002F                     __pdataBANK0:
   894  002F                     _ban:
   895  002F                     	ds	2
   896                           
   897                           	psect	cstackCOMMON
   898  0070                     __pcstackCOMMON:
   899  0070                     ?_servo3Rotate0:
   900  0070                     ?_servo3Rotate90:	
   901                           ; 1 bytes @ 0x0
   902                           
   903  0070                     ?_servo4Rotate0:	
   904                           ; 1 bytes @ 0x0
   905                           
   906  0070                     ?_servo4Rotate90:	
   907                           ; 1 bytes @ 0x0
   908                           
   909  0070                     ?_servo1Rotate0:	
   910                           ; 1 bytes @ 0x0
   911                           
   912  0070                     ?_servo1Rotate90:	
   913                           ; 1 bytes @ 0x0
   914                           
   915  0070                     ?_servo2Rotate0:	
   916                           ; 1 bytes @ 0x0
   917                           
   918  0070                     ?_servo2Rotate90:	
   919                           ; 1 bytes @ 0x0
   920                           
   921  0070                     ?_setup:	
   922                           ; 1 bytes @ 0x0
   923                           
   924  0070                     ?_isr:	
   925                           ; 1 bytes @ 0x0
   926                           
   927  0070                     ?_main:	
   928                           ; 1 bytes @ 0x0
   929                           
   930  0070                     ?_send_char:	
   931                           ; 1 bytes @ 0x0
   932                           
   933  0070                     ?i1_servo1Rotate0:	
   934                           ; 1 bytes @ 0x0
   935                           
   936  0070                     ??i1_servo1Rotate0:	
   937                           ; 1 bytes @ 0x0
   938                           
   939  0070                     ?i1_servo1Rotate90:	
   940                           ; 1 bytes @ 0x0
   941                           
   942  0070                     ??i1_servo1Rotate90:	
   943                           ; 1 bytes @ 0x0
   944                           
   945  0070                     ?i1_servo2Rotate0:	
   946                           ; 1 bytes @ 0x0
   947                           
   948  0070                     ??i1_servo2Rotate0:	
   949                           ; 1 bytes @ 0x0
   950                           
   951  0070                     ?i1_servo2Rotate90:	
   952                           ; 1 bytes @ 0x0
   953                           
   954  0070                     ??i1_servo2Rotate90:	
   955                           ; 1 bytes @ 0x0
   956                           
   957  0070                     ?i1_servo3Rotate0:	
   958                           ; 1 bytes @ 0x0
   959                           
   960  0070                     ??i1_servo3Rotate0:	
   961                           ; 1 bytes @ 0x0
   962                           
   963  0070                     ?i1_servo3Rotate90:	
   964                           ; 1 bytes @ 0x0
   965                           
   966  0070                     ??i1_servo3Rotate90:	
   967                           ; 1 bytes @ 0x0
   968                           
   969  0070                     ?i1_servo4Rotate0:	
   970                           ; 1 bytes @ 0x0
   971                           
   972  0070                     ??i1_servo4Rotate0:	
   973                           ; 1 bytes @ 0x0
   974                           
   975  0070                     ?i1_servo4Rotate90:	
   976                           ; 1 bytes @ 0x0
   977                           
   978  0070                     ??i1_servo4Rotate90:	
   979                           ; 1 bytes @ 0x0
   980                           
   981                           
   982                           ; 1 bytes @ 0x0
   983  0070                     	ds	2
   984  0072                     i1servo1Rotate0@i:
   985  0072                     i1servo1Rotate90@i:	
   986                           ; 2 bytes @ 0x2
   987                           
   988  0072                     i1servo2Rotate0@i:	
   989                           ; 2 bytes @ 0x2
   990                           
   991  0072                     i1servo2Rotate90@i:	
   992                           ; 2 bytes @ 0x2
   993                           
   994  0072                     i1servo3Rotate0@i:	
   995                           ; 2 bytes @ 0x2
   996                           
   997  0072                     i1servo3Rotate90@i:	
   998                           ; 2 bytes @ 0x2
   999                           
  1000  0072                     i1servo4Rotate0@i:	
  1001                           ; 2 bytes @ 0x2
  1002                           
  1003  0072                     i1servo4Rotate90@i:	
  1004                           ; 2 bytes @ 0x2
  1005                           
  1006                           
  1007                           ; 2 bytes @ 0x2
  1008  0072                     	ds	2
  1009  0074                     ??_isr:
  1010                           
  1011                           ; 1 bytes @ 0x4
  1012  0074                     	ds	4
  1013                           
  1014                           	psect	cstackBANK0
  1015  0020                     __pcstackBANK0:
  1016  0020                     ??_servo3Rotate0:
  1017  0020                     ??_servo3Rotate90:	
  1018                           ; 1 bytes @ 0x0
  1019                           
  1020  0020                     ??_servo4Rotate0:	
  1021                           ; 1 bytes @ 0x0
  1022                           
  1023  0020                     ??_servo4Rotate90:	
  1024                           ; 1 bytes @ 0x0
  1025                           
  1026  0020                     ??_servo1Rotate0:	
  1027                           ; 1 bytes @ 0x0
  1028                           
  1029  0020                     ??_servo1Rotate90:	
  1030                           ; 1 bytes @ 0x0
  1031                           
  1032  0020                     ??_servo2Rotate0:	
  1033                           ; 1 bytes @ 0x0
  1034                           
  1035  0020                     ??_servo2Rotate90:	
  1036                           ; 1 bytes @ 0x0
  1037                           
  1038  0020                     ??_setup:	
  1039                           ; 1 bytes @ 0x0
  1040                           
  1041  0020                     ??_send_char:	
  1042                           ; 1 bytes @ 0x0
  1043                           
  1044  0020                     send_char@dato:	
  1045                           ; 1 bytes @ 0x0
  1046                           
  1047                           
  1048                           ; 1 bytes @ 0x0
  1049  0020                     	ds	1
  1050  0021                     ?_send_str:
  1051  0021                     send_str@st:	
  1052                           ; 1 bytes @ 0x1
  1053                           
  1054                           
  1055                           ; 2 bytes @ 0x1
  1056  0021                     	ds	1
  1057  0022                     servo1Rotate0@i:
  1058  0022                     servo1Rotate90@i:	
  1059                           ; 2 bytes @ 0x2
  1060                           
  1061  0022                     servo2Rotate0@i:	
  1062                           ; 2 bytes @ 0x2
  1063                           
  1064  0022                     servo2Rotate90@i:	
  1065                           ; 2 bytes @ 0x2
  1066                           
  1067  0022                     servo3Rotate0@i:	
  1068                           ; 2 bytes @ 0x2
  1069                           
  1070  0022                     servo3Rotate90@i:	
  1071                           ; 2 bytes @ 0x2
  1072                           
  1073  0022                     servo4Rotate0@i:	
  1074                           ; 2 bytes @ 0x2
  1075                           
  1076  0022                     servo4Rotate90@i:	
  1077                           ; 2 bytes @ 0x2
  1078                           
  1079                           
  1080                           ; 2 bytes @ 0x2
  1081  0022                     	ds	1
  1082  0023                     ??_send_str:
  1083                           
  1084                           ; 1 bytes @ 0x3
  1085  0023                     	ds	3
  1086  0026                     send_str@i:
  1087                           
  1088                           ; 2 bytes @ 0x6
  1089  0026                     	ds	2
  1090  0028                     ??_main:
  1091                           
  1092                           ; 1 bytes @ 0x8
  1093  0028                     	ds	3
  1094                           
  1095                           	psect	maintext
  1096  0029                     __pmaintext:	
  1097 ;;
  1098 ;;Main: autosize = 0, tempsize = 3, incstack = 0, save=0
  1099 ;;
  1100 ;; *************** function _main *****************
  1101 ;; Defined at:
  1102 ;;		line 209 in file "Proyecto02.c"
  1103 ;; Parameters:    Size  Location     Type
  1104 ;;		None
  1105 ;; Auto vars:     Size  Location     Type
  1106 ;;		None
  1107 ;; Return value:  Size  Location     Type
  1108 ;;                  1    wreg      void 
  1109 ;; Registers used:
  1110 ;;		wreg, fsr0l, fsr0h, status,2, status,0, btemp+1, pclath, cstack
  1111 ;; Tracked objects:
  1112 ;;		On entry : B00/0
  1113 ;;		On exit  : 0/0
  1114 ;;		Unchanged: 0/0
  1115 ;; Data sizes:     COMMON   BANK0   BANK1   BANK3   BANK2
  1116 ;;      Params:         0       0       0       0       0
  1117 ;;      Locals:         0       0       0       0       0
  1118 ;;      Temps:          0       3       0       0       0
  1119 ;;      Totals:         0       3       0       0       0
  1120 ;;Total ram usage:        3 bytes
  1121 ;; Hardware stack levels required when called:    4
  1122 ;; This function calls:
  1123 ;;		_send_str
  1124 ;;		_servo1Rotate0
  1125 ;;		_servo1Rotate90
  1126 ;;		_servo2Rotate0
  1127 ;;		_servo2Rotate90
  1128 ;;		_servo3Rotate0
  1129 ;;		_servo3Rotate90
  1130 ;;		_servo4Rotate0
  1131 ;;		_servo4Rotate90
  1132 ;;		_setup
  1133 ;; This function is called by:
  1134 ;;		Startup code after reset
  1135 ;; This function uses a non-reentrant model
  1136 ;;
  1137                           
  1138                           
  1139                           ;psect for function _main
  1140  0029                     _main:
  1141  0029                     l1832:	
  1142                           ;incstack = 0
  1143                           ; Regs used in _main: [wreg-fsr0h+status,2+status,0+btemp+1+pclath+cstack]
  1144                           
  1145                           
  1146                           ;Proyecto02.c: 210:     setup();
  1147  0029  120A  118A  2653  120A  118A  	fcall	_setup
  1148  002E                     l1834:
  1149                           
  1150                           ;Proyecto02.c: 211:     ban=1;
  1151  002E  3001               	movlw	1
  1152  002F  1283               	bcf	3,5	;RP0=0, select bank0
  1153  0030  1303               	bcf	3,6	;RP1=0, select bank0
  1154  0031  00AF               	movwf	_ban
  1155  0032  3000               	movlw	0
  1156  0033  00B0               	movwf	_ban+1
  1157  0034                     l1836:
  1158                           
  1159                           ;Proyecto02.c: 218:         if(ADCON0bits.GO == 0){
  1160  0034  1283               	bcf	3,5	;RP0=0, select bank0
  1161  0035  189F               	btfsc	31,1	;volatile
  1162  0036  2838               	goto	u841
  1163  0037  2839               	goto	u840
  1164  0038                     u841:
  1165  0038  28A1               	goto	l1876
  1166  0039                     u840:
  1167  0039                     l1838:
  1168                           
  1169                           ;Proyecto02.c: 220:             if(ADCON0bits.CHS == 0){
  1170  0039  0C1F               	rrf	31,w	;volatile
  1171  003A  00A8               	movwf	??_main
  1172  003B  0C28               	rrf	??_main,w
  1173  003C  390F               	andlw	15
  1174  003D  3A00               	xorlw	0
  1175  003E  1D03               	skipz
  1176  003F  2841               	goto	u851
  1177  0040  2842               	goto	u850
  1178  0041                     u851:
  1179  0041  284B               	goto	l1844
  1180  0042                     u850:
  1181  0042                     l1840:
  1182                           
  1183                           ;Proyecto02.c: 221:                 ADCON0bits.CHS = 1;
  1184  0042  081F               	movf	31,w	;volatile
  1185  0043  39C3               	andlw	-61
  1186  0044  3804               	iorlw	4
  1187  0045  009F               	movwf	31	;volatile
  1188  0046                     l1842:
  1189                           
  1190                           ;Proyecto02.c: 222:                 adc1 = ADRESH;
  1191  0046  081E               	movf	30,w	;volatile
  1192  0047  00A8               	movwf	??_main
  1193  0048  0828               	movf	??_main,w
  1194  0049  00FD               	movwf	_adc1
  1195                           
  1196                           ;Proyecto02.c: 223:             }
  1197  004A  2897               	goto	l1872
  1198  004B                     l1844:
  1199  004B  0C1F               	rrf	31,w	;volatile
  1200  004C  00A8               	movwf	??_main
  1201  004D  0C28               	rrf	??_main,w
  1202  004E  390F               	andlw	15
  1203  004F  3A01               	xorlw	1
  1204  0050  1D03               	skipz
  1205  0051  2853               	goto	u861
  1206  0052  2854               	goto	u860
  1207  0053                     u861:
  1208  0053  285D               	goto	l1850
  1209  0054                     u860:
  1210  0054                     l1846:
  1211                           
  1212                           ;Proyecto02.c: 225:                 ADCON0bits.CHS = 2;
  1213  0054  081F               	movf	31,w	;volatile
  1214  0055  39C3               	andlw	-61
  1215  0056  3808               	iorlw	8
  1216  0057  009F               	movwf	31	;volatile
  1217  0058                     l1848:
  1218                           
  1219                           ;Proyecto02.c: 226:                 adc2 = ADRESH;
  1220  0058  081E               	movf	30,w	;volatile
  1221  0059  00A8               	movwf	??_main
  1222  005A  0828               	movf	??_main,w
  1223  005B  00FC               	movwf	_adc2
  1224                           
  1225                           ;Proyecto02.c: 228:             }
  1226  005C  2897               	goto	l1872
  1227  005D                     l1850:
  1228  005D  0C1F               	rrf	31,w	;volatile
  1229  005E  00A8               	movwf	??_main
  1230  005F  0C28               	rrf	??_main,w
  1231  0060  390F               	andlw	15
  1232  0061  3A02               	xorlw	2
  1233  0062  1D03               	skipz
  1234  0063  2865               	goto	u871
  1235  0064  2866               	goto	u870
  1236  0065                     u871:
  1237  0065  2880               	goto	l1862
  1238  0066                     u870:
  1239  0066                     l1852:
  1240                           
  1241                           ;Proyecto02.c: 230:                 ADCON0bits.CHS = 3;
  1242  0066  081F               	movf	31,w	;volatile
  1243  0067  39C3               	andlw	-61
  1244  0068  380C               	iorlw	12
  1245  0069  009F               	movwf	31	;volatile
  1246  006A                     l1854:
  1247                           
  1248                           ;Proyecto02.c: 231:                 adc3 = ADRESH;
  1249  006A  081E               	movf	30,w	;volatile
  1250  006B  00A8               	movwf	??_main
  1251  006C  0828               	movf	??_main,w
  1252  006D  00FB               	movwf	_adc3
  1253  006E                     l1856:
  1254                           
  1255                           ;Proyecto02.c: 232:                 if (ADRESH<128)
  1256  006E  3080               	movlw	128
  1257  006F  021E               	subwf	30,w	;volatile
  1258  0070  1803               	skipnc
  1259  0071  2873               	goto	u881
  1260  0072  2874               	goto	u880
  1261  0073                     u881:
  1262  0073  287A               	goto	l1860
  1263  0074                     u880:
  1264  0074                     l1858:
  1265                           
  1266                           ;Proyecto02.c: 233:                     servo1Rotate0();
  1267  0074  120A  158A  27D3  120A  118A  	fcall	_servo1Rotate0
  1268  0079  2897               	goto	l1872
  1269  007A                     l1860:
  1270                           
  1271                           ;Proyecto02.c: 235:                     servo1Rotate90();
  1272  007A  120A  118A  27B1  120A  118A  	fcall	_servo1Rotate90
  1273  007F  2897               	goto	l1872
  1274  0080                     l1862:
  1275                           
  1276                           ;Proyecto02.c: 239:                 ADCON0bits.CHS = 0;
  1277  0080  30C3               	movlw	-61
  1278  0081  059F               	andwf	31,f	;volatile
  1279  0082                     l1864:
  1280                           
  1281                           ;Proyecto02.c: 240:                 adc4 = ADRESH;
  1282  0082  081E               	movf	30,w	;volatile
  1283  0083  00A8               	movwf	??_main
  1284  0084  0828               	movf	??_main,w
  1285  0085  00FA               	movwf	_adc4
  1286  0086                     l1866:
  1287                           
  1288                           ;Proyecto02.c: 241:                 if (ADRESH <128)
  1289  0086  3080               	movlw	128
  1290  0087  021E               	subwf	30,w	;volatile
  1291  0088  1803               	skipnc
  1292  0089  288B               	goto	u891
  1293  008A  288C               	goto	u890
  1294  008B                     u891:
  1295  008B  2892               	goto	l1870
  1296  008C                     u890:
  1297  008C                     l1868:
  1298                           
  1299                           ;Proyecto02.c: 242:                     servo2Rotate0();
  1300  008C  120A  118A  22D3  120A  118A  	fcall	_servo2Rotate0
  1301  0091  2897               	goto	l1872
  1302  0092                     l1870:
  1303                           
  1304                           ;Proyecto02.c: 244:                     servo2Rotate90();
  1305  0092  120A  118A  2782  120A  118A  	fcall	_servo2Rotate90
  1306  0097                     l1872:
  1307                           
  1308                           ;Proyecto02.c: 246:             _delay((unsigned long)((50)*(8000000/4000000.0)));
  1309  0097  3020               	movlw	32
  1310  0098  1283               	bcf	3,5	;RP0=0, select bank0
  1311  0099  1303               	bcf	3,6	;RP1=0, select bank0
  1312  009A  00A8               	movwf	??_main
  1313  009B                     u917:
  1314  009B  0BA8               	decfsz	??_main,f
  1315  009C  289B               	goto	u917
  1316  009D  0000               	nop
  1317  009E                     l1874:
  1318                           
  1319                           ;Proyecto02.c: 247:             ADCON0bits.GO = 1;
  1320  009E  1283               	bcf	3,5	;RP0=0, select bank0
  1321  009F  1303               	bcf	3,6	;RP1=0, select bank0
  1322  00A0  149F               	bsf	31,1	;volatile
  1323  00A1                     l1876:
  1324                           
  1325                           ;Proyecto02.c: 252:         _delay((unsigned long)((500)*(8000000/4000.0)));
  1326  00A1  3006               	movlw	6
  1327  00A2  1283               	bcf	3,5	;RP0=0, select bank0
  1328  00A3  1303               	bcf	3,6	;RP1=0, select bank0
  1329  00A4  00AA               	movwf	??_main+2
  1330  00A5  3013               	movlw	19
  1331  00A6  00A9               	movwf	??_main+1
  1332  00A7  30AD               	movlw	173
  1333  00A8  00A8               	movwf	??_main
  1334  00A9                     u927:
  1335  00A9  0BA8               	decfsz	??_main,f
  1336  00AA  28A9               	goto	u927
  1337  00AB  0BA9               	decfsz	??_main+1,f
  1338  00AC  28A9               	goto	u927
  1339  00AD  0BAA               	decfsz	??_main+2,f
  1340  00AE  28A9               	goto	u927
  1341  00AF                     l1878:
  1342                           
  1343                           ;Proyecto02.c: 253:         if (ban==1){
  1344  00AF  1283               	bcf	3,5	;RP0=0, select bank0
  1345  00B0  1303               	bcf	3,6	;RP1=0, select bank0
  1346  00B1  032F               	decf	_ban,w
  1347  00B2  0430               	iorwf	_ban+1,w
  1348  00B3  1D03               	btfss	3,2
  1349  00B4  28B6               	goto	u901
  1350  00B5  28B7               	goto	u900
  1351  00B6                     u901:
  1352  00B6  2A54               	goto	l2028
  1353  00B7                     u900:
  1354  00B7                     l1880:
  1355                           
  1356                           ;Proyecto02.c: 254:             send_str("Que accion desas ejecutar?\r");
  1357  00B7  30DB               	movlw	low (STR_1| (0+32768))
  1358  00B8  00A1               	movwf	send_str@st
  1359  00B9  3083               	movlw	high (STR_1| (0+32768))
  1360  00BA  00A2               	movwf	send_str@st+1
  1361  00BB  120A  118A  26DE  120A  118A  	fcall	_send_str
  1362                           
  1363                           ;Proyecto02.c: 255:             send_str("Lado izquierdo\r");
  1364  00C0  30D9               	movlw	low (STR_2| (0+32768))
  1365  00C1  1283               	bcf	3,5	;RP0=0, select bank0
  1366  00C2  1303               	bcf	3,6	;RP1=0, select bank0
  1367  00C3  00A1               	movwf	send_str@st
  1368  00C4  3084               	movlw	high (STR_2| (0+32768))
  1369  00C5  00A2               	movwf	send_str@st+1
  1370  00C6  120A  118A  26DE  120A  118A  	fcall	_send_str
  1371                           
  1372                           ;Proyecto02.c: 256:             send_str("(1) Mover pie izquierdo a 0\r");
  1373  00CB  30A2               	movlw	low (STR_3| (0+32768))
  1374  00CC  1283               	bcf	3,5	;RP0=0, select bank0
  1375  00CD  1303               	bcf	3,6	;RP1=0, select bank0
  1376  00CE  00A1               	movwf	send_str@st
  1377  00CF  3083               	movlw	high (STR_3| (0+32768))
  1378  00D0  00A2               	movwf	send_str@st+1
  1379  00D1  120A  118A  26DE  120A  118A  	fcall	_send_str
  1380                           
  1381                           ;Proyecto02.c: 257:             send_str("(2) Mover pie izquierdo a 90 \r");
  1382  00D6  3065               	movlw	low (STR_4| (0+32768))
  1383  00D7  1283               	bcf	3,5	;RP0=0, select bank0
  1384  00D8  1303               	bcf	3,6	;RP1=0, select bank0
  1385  00D9  00A1               	movwf	send_str@st
  1386  00DA  3083               	movlw	high (STR_4| (0+32768))
  1387  00DB  00A2               	movwf	send_str@st+1
  1388  00DC  120A  118A  26DE  120A  118A  	fcall	_send_str
  1389                           
  1390                           ;Proyecto02.c: 258:             send_str("(3) Mover pierna izquierdo a 0 \r");
  1391  00E1  3024               	movlw	low (STR_5| (0+32768))
  1392  00E2  1283               	bcf	3,5	;RP0=0, select bank0
  1393  00E3  1303               	bcf	3,6	;RP1=0, select bank0
  1394  00E4  00A1               	movwf	send_str@st
  1395  00E5  3083               	movlw	high (STR_5| (0+32768))
  1396  00E6  00A2               	movwf	send_str@st+1
  1397  00E7  120A  118A  26DE  120A  118A  	fcall	_send_str
  1398                           
  1399                           ;Proyecto02.c: 259:             send_str("(4) Mover pierna izquierdo a 90 \r \r");
  1400  00EC  3000               	movlw	low (STR_6| (0+32768))
  1401  00ED  1283               	bcf	3,5	;RP0=0, select bank0
  1402  00EE  1303               	bcf	3,6	;RP1=0, select bank0
  1403  00EF  00A1               	movwf	send_str@st
  1404  00F0  3083               	movlw	high (STR_6| (0+32768))
  1405  00F1  00A2               	movwf	send_str@st+1
  1406  00F2  120A  118A  26DE  120A  118A  	fcall	_send_str
  1407                           
  1408                           ;Proyecto02.c: 260:             send_str("Lado Derecho\r");
  1409  00F7  30E9               	movlw	low (STR_7| (0+32768))
  1410  00F8  1283               	bcf	3,5	;RP0=0, select bank0
  1411  00F9  1303               	bcf	3,6	;RP1=0, select bank0
  1412  00FA  00A1               	movwf	send_str@st
  1413  00FB  3084               	movlw	high (STR_7| (0+32768))
  1414  00FC  00A2               	movwf	send_str@st+1
  1415  00FD  120A  118A  26DE  120A  118A  	fcall	_send_str
  1416                           
  1417                           ;Proyecto02.c: 261:             send_str("(5) Mover pie derecho a 0\r");
  1418  0102  30F7               	movlw	low (STR_8| (0+32768))
  1419  0103  1283               	bcf	3,5	;RP0=0, select bank0
  1420  0104  1303               	bcf	3,6	;RP1=0, select bank0
  1421  0105  00A1               	movwf	send_str@st
  1422  0106  3083               	movlw	high (STR_8| (0+32768))
  1423  0107  00A2               	movwf	send_str@st+1
  1424  0108  120A  118A  26DE  120A  118A  	fcall	_send_str
  1425                           
  1426                           ;Proyecto02.c: 262:             send_str("(6) Mover pie derecho a 90\r");
  1427  010D  30BF               	movlw	low (STR_9| (0+32768))
  1428  010E  1283               	bcf	3,5	;RP0=0, select bank0
  1429  010F  1303               	bcf	3,6	;RP1=0, select bank0
  1430  0110  00A1               	movwf	send_str@st
  1431  0111  3083               	movlw	high (STR_9| (0+32768))
  1432  0112  00A2               	movwf	send_str@st+1
  1433  0113  120A  118A  26DE  120A  118A  	fcall	_send_str
  1434                           
  1435                           ;Proyecto02.c: 263:             send_str("(7) Mover pierna derecho a 0\r");
  1436  0118  3084               	movlw	low (STR_10| (0+32768))
  1437  0119  1283               	bcf	3,5	;RP0=0, select bank0
  1438  011A  1303               	bcf	3,6	;RP1=0, select bank0
  1439  011B  00A1               	movwf	send_str@st
  1440  011C  3083               	movlw	high (STR_10| (0+32768))
  1441  011D  00A2               	movwf	send_str@st+1
  1442  011E  120A  118A  26DE  120A  118A  	fcall	_send_str
  1443                           
  1444                           ;Proyecto02.c: 264:             send_str("(8) Mover pierna derecho a 90\r\r");
  1445  0123  3045               	movlw	low (STR_11| (0+32768))
  1446  0124  1283               	bcf	3,5	;RP0=0, select bank0
  1447  0125  1303               	bcf	3,6	;RP1=0, select bank0
  1448  0126  00A1               	movwf	send_str@st
  1449  0127  3083               	movlw	high (STR_11| (0+32768))
  1450  0128  00A2               	movwf	send_str@st+1
  1451  0129  120A  118A  26DE  120A  118A  	fcall	_send_str
  1452                           
  1453                           ;Proyecto02.c: 265:             send_str("Datos\r");
  1454  012E  30F7               	movlw	low (STR_12| (0+32768))
  1455  012F  1283               	bcf	3,5	;RP0=0, select bank0
  1456  0130  1303               	bcf	3,6	;RP1=0, select bank0
  1457  0131  00A1               	movwf	send_str@st
  1458  0132  3084               	movlw	high (STR_12| (0+32768))
  1459  0133  00A2               	movwf	send_str@st+1
  1460  0134  120A  118A  26DE  120A  118A  	fcall	_send_str
  1461                           
  1462                           ;Proyecto02.c: 266:             send_str("(9) Leer los datos");
  1463  0139  30C6               	movlw	low (STR_13| (0+32768))
  1464  013A  1283               	bcf	3,5	;RP0=0, select bank0
  1465  013B  1303               	bcf	3,6	;RP1=0, select bank0
  1466  013C  00A1               	movwf	send_str@st
  1467  013D  3084               	movlw	high (STR_13| (0+32768))
  1468  013E  00A2               	movwf	send_str@st+1
  1469  013F  120A  118A  26DE  120A  118A  	fcall	_send_str
  1470  0144                     l1882:
  1471                           
  1472                           ;Proyecto02.c: 267:             ban = 0;
  1473  0144  1283               	bcf	3,5	;RP0=0, select bank0
  1474  0145  1303               	bcf	3,6	;RP1=0, select bank0
  1475  0146  01AF               	clrf	_ban
  1476  0147  01B0               	clrf	_ban+1
  1477  0148                     l1884:
  1478                           
  1479                           ;Proyecto02.c: 268:             op = 0;
  1480  0148  01AB               	clrf	_op
  1481  0149  01AC               	clrf	_op+1
  1482  014A  2A54               	goto	l2028
  1483  014B                     l1886:
  1484                           
  1485                           ;Proyecto02.c: 273:                 TRISA = 0x00;
  1486  014B  1683               	bsf	3,5	;RP0=1, select bank1
  1487  014C  1303               	bcf	3,6	;RP1=0, select bank1
  1488  014D  0185               	clrf	5	;volatile
  1489  014E                     l1888:
  1490                           
  1491                           ;Proyecto02.c: 274:                 TXREG = '\f';
  1492  014E  300C               	movlw	12
  1493  014F  1283               	bcf	3,5	;RP0=0, select bank0
  1494  0150  1303               	bcf	3,6	;RP1=0, select bank0
  1495  0151  0099               	movwf	25	;volatile
  1496  0152                     l1890:
  1497                           
  1498                           ;Proyecto02.c: 275:                 send_str("Girando pierna Izq a 0");
  1499  0152  3042               	movlw	low (STR_14| (0+32768))
  1500  0153  00A1               	movwf	send_str@st
  1501  0154  3084               	movlw	high (STR_14| (0+32768))
  1502  0155  00A2               	movwf	send_str@st+1
  1503  0156  120A  118A  26DE  120A  118A  	fcall	_send_str
  1504  015B                     l1892:
  1505                           
  1506                           ;Proyecto02.c: 276:                 servo1Rotate0();
  1507  015B  120A  158A  27D3  120A  118A  	fcall	_servo1Rotate0
  1508  0160                     l1894:
  1509                           
  1510                           ;Proyecto02.c: 277:                 _delay((unsigned long)((3000)*(8000000/4000.0)));
  1511  0160  301F               	movlw	31
  1512  0161  1283               	bcf	3,5	;RP0=0, select bank0
  1513  0162  1303               	bcf	3,6	;RP1=0, select bank0
  1514  0163  00AA               	movwf	??_main+2
  1515  0164  3071               	movlw	113
  1516  0165  00A9               	movwf	??_main+1
  1517  0166  301D               	movlw	29
  1518  0167  00A8               	movwf	??_main
  1519  0168                     u937:
  1520  0168  0BA8               	decfsz	??_main,f
  1521  0169  2968               	goto	u937
  1522  016A  0BA9               	decfsz	??_main+1,f
  1523  016B  2968               	goto	u937
  1524  016C  0BAA               	decfsz	??_main+2,f
  1525  016D  2968               	goto	u937
  1526  016E  296F               	nop2
  1527  016F                     l1896:
  1528                           
  1529                           ;Proyecto02.c: 278:                 TXREG = '\f';
  1530  016F  300C               	movlw	12
  1531  0170  1283               	bcf	3,5	;RP0=0, select bank0
  1532  0171  1303               	bcf	3,6	;RP1=0, select bank0
  1533  0172  0099               	movwf	25	;volatile
  1534  0173                     l1898:
  1535                           
  1536                           ;Proyecto02.c: 279:                 ban = 1;
  1537  0173  3001               	movlw	1
  1538  0174  1283               	bcf	3,5	;RP0=0, select bank0
  1539  0175  1303               	bcf	3,6	;RP1=0, select bank0
  1540  0176  00AF               	movwf	_ban
  1541  0177  3000               	movlw	0
  1542  0178  00B0               	movwf	_ban+1
  1543  0179                     l1900:
  1544                           
  1545                           ;Proyecto02.c: 280:                 TRISA = 0xFF;
  1546  0179  30FF               	movlw	255
  1547  017A  1683               	bsf	3,5	;RP0=1, select bank1
  1548  017B  1303               	bcf	3,6	;RP1=0, select bank1
  1549  017C  0085               	movwf	5	;volatile
  1550                           
  1551                           ;Proyecto02.c: 281:                 break;
  1552  017D  2834               	goto	l1836
  1553  017E                     l1902:
  1554                           
  1555                           ;Proyecto02.c: 284:                 TRISA = 0x00;
  1556  017E  1683               	bsf	3,5	;RP0=1, select bank1
  1557  017F  1303               	bcf	3,6	;RP1=0, select bank1
  1558  0180  0185               	clrf	5	;volatile
  1559  0181                     l1904:
  1560                           
  1561                           ;Proyecto02.c: 285:                 TXREG = '\f';
  1562  0181  300C               	movlw	12
  1563  0182  1283               	bcf	3,5	;RP0=0, select bank0
  1564  0183  1303               	bcf	3,6	;RP1=0, select bank0
  1565  0184  0099               	movwf	25	;volatile
  1566  0185                     l1906:
  1567                           
  1568                           ;Proyecto02.c: 286:                 send_str("Girando pierna Izq a 90");
  1569  0185  3012               	movlw	low (STR_15| (0+32768))
  1570  0186  00A1               	movwf	send_str@st
  1571  0187  3084               	movlw	high (STR_15| (0+32768))
  1572  0188  00A2               	movwf	send_str@st+1
  1573  0189  120A  118A  26DE  120A  118A  	fcall	_send_str
  1574  018E                     l1908:
  1575                           
  1576                           ;Proyecto02.c: 287:                 servo1Rotate90();
  1577  018E  120A  118A  27B1  120A  118A  	fcall	_servo1Rotate90
  1578  0193                     l1910:
  1579                           
  1580                           ;Proyecto02.c: 288:                 _delay((unsigned long)((3000)*(8000000/4000.0)));
  1581  0193  301F               	movlw	31
  1582  0194  1283               	bcf	3,5	;RP0=0, select bank0
  1583  0195  1303               	bcf	3,6	;RP1=0, select bank0
  1584  0196  00AA               	movwf	??_main+2
  1585  0197  3071               	movlw	113
  1586  0198  00A9               	movwf	??_main+1
  1587  0199  301D               	movlw	29
  1588  019A  00A8               	movwf	??_main
  1589  019B                     u947:
  1590  019B  0BA8               	decfsz	??_main,f
  1591  019C  299B               	goto	u947
  1592  019D  0BA9               	decfsz	??_main+1,f
  1593  019E  299B               	goto	u947
  1594  019F  0BAA               	decfsz	??_main+2,f
  1595  01A0  299B               	goto	u947
  1596  01A1  29A2               	nop2
  1597  01A2                     l1912:
  1598                           
  1599                           ;Proyecto02.c: 289:                 TXREG = '\f';
  1600  01A2  300C               	movlw	12
  1601  01A3  1283               	bcf	3,5	;RP0=0, select bank0
  1602  01A4  1303               	bcf	3,6	;RP1=0, select bank0
  1603  01A5  0099               	movwf	25	;volatile
  1604  01A6  282E               	goto	l1834
  1605  01A7                     l1916:
  1606                           
  1607                           ;Proyecto02.c: 294:                 TRISA = 0x00;
  1608  01A7  1683               	bsf	3,5	;RP0=1, select bank1
  1609  01A8  1303               	bcf	3,6	;RP1=0, select bank1
  1610  01A9  0185               	clrf	5	;volatile
  1611  01AA                     l1918:
  1612                           
  1613                           ;Proyecto02.c: 295:                 TXREG = '\f';
  1614  01AA  300C               	movlw	12
  1615  01AB  1283               	bcf	3,5	;RP0=0, select bank0
  1616  01AC  1303               	bcf	3,6	;RP1=0, select bank0
  1617  01AD  0099               	movwf	25	;volatile
  1618  01AE                     l1920:
  1619                           
  1620                           ;Proyecto02.c: 296:                 send_str("Girando pier Izq a 0");
  1621  01AE  309C               	movlw	low (STR_16| (0+32768))
  1622  01AF  00A1               	movwf	send_str@st
  1623  01B0  3084               	movlw	high (STR_16| (0+32768))
  1624  01B1  00A2               	movwf	send_str@st+1
  1625  01B2  120A  118A  26DE  120A  118A  	fcall	_send_str
  1626  01B7                     l1922:
  1627                           
  1628                           ;Proyecto02.c: 297:                 servo2Rotate0();
  1629  01B7  120A  118A  22D3  120A  118A  	fcall	_servo2Rotate0
  1630  01BC  2960               	goto	l1894
  1631  01BD                     l1932:
  1632                           
  1633                           ;Proyecto02.c: 305:                 TRISA = 0x00;
  1634  01BD  1683               	bsf	3,5	;RP0=1, select bank1
  1635  01BE  1303               	bcf	3,6	;RP1=0, select bank1
  1636  01BF  0185               	clrf	5	;volatile
  1637  01C0                     l1934:
  1638                           
  1639                           ;Proyecto02.c: 306:                 TXREG = '\f';
  1640  01C0  300C               	movlw	12
  1641  01C1  1283               	bcf	3,5	;RP0=0, select bank0
  1642  01C2  1303               	bcf	3,6	;RP1=0, select bank0
  1643  01C3  0099               	movwf	25	;volatile
  1644  01C4                     l1936:
  1645                           
  1646                           ;Proyecto02.c: 307:                 send_str("Girando pier Izq a 90");
  1647  01C4  3070               	movlw	low (STR_17| (0+32768))
  1648  01C5  00A1               	movwf	send_str@st
  1649  01C6  3084               	movlw	high (STR_17| (0+32768))
  1650  01C7  00A2               	movwf	send_str@st+1
  1651  01C8  120A  118A  26DE  120A  118A  	fcall	_send_str
  1652  01CD                     l1938:
  1653                           
  1654                           ;Proyecto02.c: 308:                 servo2Rotate90();
  1655  01CD  120A  118A  2782  120A  118A  	fcall	_servo2Rotate90
  1656  01D2  2960               	goto	l1894
  1657  01D3                     l1948:
  1658                           
  1659                           ;Proyecto02.c: 316:                 TRISA = 0x00;
  1660  01D3  1683               	bsf	3,5	;RP0=1, select bank1
  1661  01D4  1303               	bcf	3,6	;RP1=0, select bank1
  1662  01D5  0185               	clrf	5	;volatile
  1663  01D6                     l1950:
  1664                           
  1665                           ;Proyecto02.c: 317:                 TXREG = '\f';
  1666  01D6  300C               	movlw	12
  1667  01D7  1283               	bcf	3,5	;RP0=0, select bank0
  1668  01D8  1303               	bcf	3,6	;RP1=0, select bank0
  1669  01D9  0099               	movwf	25	;volatile
  1670  01DA                     l1952:
  1671                           
  1672                           ;Proyecto02.c: 318:                 send_str("Girando pierna der a 0");
  1673  01DA  3059               	movlw	low (STR_18| (0+32768))
  1674  01DB  00A1               	movwf	send_str@st
  1675  01DC  3084               	movlw	high (STR_18| (0+32768))
  1676  01DD  00A2               	movwf	send_str@st+1
  1677  01DE  120A  118A  26DE  120A  118A  	fcall	_send_str
  1678  01E3                     l1954:
  1679                           
  1680                           ;Proyecto02.c: 319:                 servo3Rotate0();
  1681  01E3  120A  118A  22A6  120A  118A  	fcall	_servo3Rotate0
  1682  01E8  2993               	goto	l1910
  1683  01E9                     l1962:
  1684                           
  1685                           ;Proyecto02.c: 326:                 TRISA = 0x00;
  1686  01E9  1683               	bsf	3,5	;RP0=1, select bank1
  1687  01EA  1303               	bcf	3,6	;RP1=0, select bank1
  1688  01EB  0185               	clrf	5	;volatile
  1689  01EC                     l1964:
  1690                           
  1691                           ;Proyecto02.c: 327:                 TXREG = '\f';
  1692  01EC  300C               	movlw	12
  1693  01ED  1283               	bcf	3,5	;RP0=0, select bank0
  1694  01EE  1303               	bcf	3,6	;RP1=0, select bank0
  1695  01EF  0099               	movwf	25	;volatile
  1696  01F0                     l1966:
  1697                           
  1698                           ;Proyecto02.c: 328:                 send_str("Girando pierna der a 90");
  1699  01F0  302A               	movlw	low (STR_19| (0+32768))
  1700  01F1  00A1               	movwf	send_str@st
  1701  01F2  3084               	movlw	high (STR_19| (0+32768))
  1702  01F3  00A2               	movwf	send_str@st+1
  1703  01F4  120A  118A  26DE  120A  118A  	fcall	_send_str
  1704  01F9                     l1968:
  1705                           
  1706                           ;Proyecto02.c: 329:                 servo3Rotate90();
  1707  01F9  120A  118A  2753  120A  118A  	fcall	_servo3Rotate90
  1708  01FE  2960               	goto	l1894
  1709  01FF                     l1978:
  1710                           
  1711                           ;Proyecto02.c: 337:                 TRISA = 0x00;
  1712  01FF  1683               	bsf	3,5	;RP0=1, select bank1
  1713  0200  1303               	bcf	3,6	;RP1=0, select bank1
  1714  0201  0185               	clrf	5	;volatile
  1715  0202                     l1980:
  1716                           
  1717                           ;Proyecto02.c: 338:                 TXREG = '\f';
  1718  0202  300C               	movlw	12
  1719  0203  1283               	bcf	3,5	;RP0=0, select bank0
  1720  0204  1303               	bcf	3,6	;RP1=0, select bank0
  1721  0205  0099               	movwf	25	;volatile
  1722  0206                     l1982:
  1723                           
  1724                           ;Proyecto02.c: 339:                 send_str("Girando pier der a 0");
  1725  0206  30B1               	movlw	low (STR_20| (0+32768))
  1726  0207  00A1               	movwf	send_str@st
  1727  0208  3084               	movlw	high (STR_20| (0+32768))
  1728  0209  00A2               	movwf	send_str@st+1
  1729  020A  120A  118A  26DE  120A  118A  	fcall	_send_str
  1730  020F                     l1984:
  1731                           
  1732                           ;Proyecto02.c: 340:                 servo4Rotate0();
  1733  020F  120A  118A  2279  120A  118A  	fcall	_servo4Rotate0
  1734  0214  2960               	goto	l1894
  1735  0215                     l1994:
  1736                           
  1737                           ;Proyecto02.c: 348:                 TRISA = 0x00;
  1738  0215  1683               	bsf	3,5	;RP0=1, select bank1
  1739  0216  1303               	bcf	3,6	;RP1=0, select bank1
  1740  0217  0185               	clrf	5	;volatile
  1741  0218                     l1996:
  1742                           
  1743                           ;Proyecto02.c: 349:                 TXREG = '\f';
  1744  0218  300C               	movlw	12
  1745  0219  1283               	bcf	3,5	;RP0=0, select bank0
  1746  021A  1303               	bcf	3,6	;RP1=0, select bank0
  1747  021B  0099               	movwf	25	;volatile
  1748  021C                     l1998:
  1749                           
  1750                           ;Proyecto02.c: 350:                 send_str("Girando pier der a 90");
  1751  021C  3086               	movlw	low (STR_21| (0+32768))
  1752  021D  00A1               	movwf	send_str@st
  1753  021E  3084               	movlw	high (STR_21| (0+32768))
  1754  021F  00A2               	movwf	send_str@st+1
  1755  0220  120A  118A  26DE  120A  118A  	fcall	_send_str
  1756  0225                     l2000:
  1757                           
  1758                           ;Proyecto02.c: 351:                 servo4Rotate90();
  1759  0225  120A  118A  2724  120A  118A  	fcall	_servo4Rotate90
  1760  022A  2960               	goto	l1894
  1761  022B                     l2010:
  1762                           
  1763                           ;Proyecto02.c: 359:                 TRISA = 0x00;
  1764  022B  1683               	bsf	3,5	;RP0=1, select bank1
  1765  022C  1303               	bcf	3,6	;RP1=0, select bank1
  1766  022D  0185               	clrf	5	;volatile
  1767  022E                     l2012:
  1768                           
  1769                           ;Proyecto02.c: 360:                 TXREG = '\f';
  1770  022E  300C               	movlw	12
  1771  022F  1283               	bcf	3,5	;RP0=0, select bank0
  1772  0230  1303               	bcf	3,6	;RP1=0, select bank0
  1773  0231  0099               	movwf	25	;volatile
  1774  0232                     l2014:
  1775                           
  1776                           ;Proyecto02.c: 361:                 send_str("datos");
  1777  0232  30D3               	movlw	low ((STR_13+13)| (0+32768))
  1778  0233  00A1               	movwf	send_str@st
  1779  0234  3084               	movlw	high ((STR_13+13)| (0+32768))
  1780  0235  00A2               	movwf	send_str@st+1
  1781  0236  120A  118A  26DE  120A  118A  	fcall	_send_str
  1782  023B                     l2016:
  1783                           
  1784                           ;Proyecto02.c: 362:                 _delay((unsigned long)((3000)*(8000000/4000.0)));
  1785  023B  301F               	movlw	31
  1786  023C  1283               	bcf	3,5	;RP0=0, select bank0
  1787  023D  1303               	bcf	3,6	;RP1=0, select bank0
  1788  023E  00AA               	movwf	??_main+2
  1789  023F  3071               	movlw	113
  1790  0240  00A9               	movwf	??_main+1
  1791  0241  301D               	movlw	29
  1792  0242  00A8               	movwf	??_main
  1793  0243                     u957:
  1794  0243  0BA8               	decfsz	??_main,f
  1795  0244  2A43               	goto	u957
  1796  0245  0BA9               	decfsz	??_main+1,f
  1797  0246  2A43               	goto	u957
  1798  0247  0BAA               	decfsz	??_main+2,f
  1799  0248  2A43               	goto	u957
  1800  0249  2A4A               	nop2
  1801  024A                     l2018:
  1802                           
  1803                           ;Proyecto02.c: 363:                 TXREG = '\f';
  1804  024A  300C               	movlw	12
  1805  024B  1283               	bcf	3,5	;RP0=0, select bank0
  1806  024C  1303               	bcf	3,6	;RP1=0, select bank0
  1807  024D  0099               	movwf	25	;volatile
  1808  024E                     l2020:
  1809                           
  1810                           ;Proyecto02.c: 364:                 servo2Rotate90();
  1811  024E  120A  118A  2782  120A  118A  	fcall	_servo2Rotate90
  1812  0253  2973               	goto	l1898
  1813  0254                     l2028:
  1814                           
  1815                           ; Switch on 2 bytes has been partitioned into a top level switch of size 1, and 1 sub-sw
      +                          itches
  1816                           ; Switch size 1, requested type "simple"
  1817                           ; Number of cases is 1, Range of values is 0 to 0
  1818                           ; switch strategies available:
  1819                           ; Name         Instructions Cycles
  1820                           ; simple_byte            4     3 (average)
  1821                           ; direct_byte           11     8 (fixed)
  1822                           ; jumptable            260     6 (fixed)
  1823                           ;	Chosen strategy is simple_byte
  1824  0254  082C               	movf	_op+1,w
  1825  0255  3A00               	xorlw	0	; case 0
  1826  0256  1903               	skipnz
  1827  0257  2A59               	goto	l2054
  1828  0258  2834               	goto	l1836
  1829  0259                     l2054:
  1830                           
  1831                           ; Switch size 1, requested type "simple"
  1832                           ; Number of cases is 9, Range of values is 49 to 57
  1833                           ; switch strategies available:
  1834                           ; Name         Instructions Cycles
  1835                           ; simple_byte           28    15 (average)
  1836                           ; direct_byte           38    11 (fixed)
  1837                           ; jumptable            263     9 (fixed)
  1838                           ;	Chosen strategy is simple_byte
  1839  0259  082B               	movf	_op,w
  1840  025A  3A31               	xorlw	49	; case 49
  1841  025B  1903               	skipnz
  1842  025C  294B               	goto	l1886
  1843  025D  3A03               	xorlw	3	; case 50
  1844  025E  1903               	skipnz
  1845  025F  297E               	goto	l1902
  1846  0260  3A01               	xorlw	1	; case 51
  1847  0261  1903               	skipnz
  1848  0262  29A7               	goto	l1916
  1849  0263  3A07               	xorlw	7	; case 52
  1850  0264  1903               	skipnz
  1851  0265  29BD               	goto	l1932
  1852  0266  3A01               	xorlw	1	; case 53
  1853  0267  1903               	skipnz
  1854  0268  29D3               	goto	l1948
  1855  0269  3A03               	xorlw	3	; case 54
  1856  026A  1903               	skipnz
  1857  026B  29E9               	goto	l1962
  1858  026C  3A01               	xorlw	1	; case 55
  1859  026D  1903               	skipnz
  1860  026E  29FF               	goto	l1978
  1861  026F  3A0F               	xorlw	15	; case 56
  1862  0270  1903               	skipnz
  1863  0271  2A15               	goto	l1994
  1864  0272  3A01               	xorlw	1	; case 57
  1865  0273  1903               	skipnz
  1866  0274  2A2B               	goto	l2010
  1867  0275  2834               	goto	l1836
  1868  0276  120A  118A  280C   	ljmp	start
  1869  0279                     __end_of_main:
  1870                           
  1871                           	psect	text1
  1872  0653                     __ptext1:	
  1873 ;; *************** function _setup *****************
  1874 ;; Defined at:
  1875 ;;		line 374 in file "Proyecto02.c"
  1876 ;; Parameters:    Size  Location     Type
  1877 ;;		None
  1878 ;; Auto vars:     Size  Location     Type
  1879 ;;		None
  1880 ;; Return value:  Size  Location     Type
  1881 ;;                  1    wreg      void 
  1882 ;; Registers used:
  1883 ;;		wreg, status,2, status,0
  1884 ;; Tracked objects:
  1885 ;;		On entry : 0/0
  1886 ;;		On exit  : 0/0
  1887 ;;		Unchanged: 0/0
  1888 ;; Data sizes:     COMMON   BANK0   BANK1   BANK3   BANK2
  1889 ;;      Params:         0       0       0       0       0
  1890 ;;      Locals:         0       0       0       0       0
  1891 ;;      Temps:          0       1       0       0       0
  1892 ;;      Totals:         0       1       0       0       0
  1893 ;;Total ram usage:        1 bytes
  1894 ;; Hardware stack levels used:    1
  1895 ;; Hardware stack levels required when called:    2
  1896 ;; This function calls:
  1897 ;;		Nothing
  1898 ;; This function is called by:
  1899 ;;		_main
  1900 ;; This function uses a non-reentrant model
  1901 ;;
  1902                           
  1903                           
  1904                           ;psect for function _setup
  1905  0653                     _setup:
  1906  0653                     l1526:	
  1907                           ;incstack = 0
  1908                           ; Regs used in _setup: [wreg+status,2+status,0]
  1909                           
  1910                           
  1911                           ;Proyecto02.c: 376:     ANSEL = 0b00001111;
  1912  0653  300F               	movlw	15
  1913  0654  1683               	bsf	3,5	;RP0=1, select bank3
  1914  0655  1703               	bsf	3,6	;RP1=1, select bank3
  1915  0656  0088               	movwf	8	;volatile
  1916  0657                     l1528:
  1917                           
  1918                           ;Proyecto02.c: 377:     ANSELH = 0x00;
  1919  0657  0189               	clrf	9	;volatile
  1920  0658                     l1530:
  1921                           
  1922                           ;Proyecto02.c: 380:     TRISA = 0xFF;
  1923  0658  30FF               	movlw	255
  1924  0659  1683               	bsf	3,5	;RP0=1, select bank1
  1925  065A  1303               	bcf	3,6	;RP1=0, select bank1
  1926  065B  0085               	movwf	5	;volatile
  1927  065C                     l1532:
  1928                           
  1929                           ;Proyecto02.c: 381:     TRISB = 0xFF;
  1930  065C  30FF               	movlw	255
  1931  065D  0086               	movwf	6	;volatile
  1932  065E                     l1534:
  1933                           
  1934                           ;Proyecto02.c: 382:     TRISE = 0xFF;
  1935  065E  30FF               	movlw	255
  1936  065F  0089               	movwf	9	;volatile
  1937                           
  1938                           ;Proyecto02.c: 384:     TRISC = 0x00;
  1939  0660  0187               	clrf	7	;volatile
  1940                           
  1941                           ;Proyecto02.c: 385:     TRISD = 0x00;
  1942  0661  0188               	clrf	8	;volatile
  1943  0662                     l1536:
  1944                           
  1945                           ;Proyecto02.c: 387:     TRISCbits.TRISC7= 1;
  1946  0662  1787               	bsf	7,7	;volatile
  1947                           
  1948                           ;Proyecto02.c: 389:     PORTA = 0x00;
  1949  0663  1283               	bcf	3,5	;RP0=0, select bank0
  1950  0664  1303               	bcf	3,6	;RP1=0, select bank0
  1951  0665  0185               	clrf	5	;volatile
  1952                           
  1953                           ;Proyecto02.c: 390:     PORTB = 0x00;
  1954  0666  0186               	clrf	6	;volatile
  1955                           
  1956                           ;Proyecto02.c: 391:     PORTC = 0x00;
  1957  0667  0187               	clrf	7	;volatile
  1958                           
  1959                           ;Proyecto02.c: 392:     PORTD = 0x00;
  1960  0668  0188               	clrf	8	;volatile
  1961  0669                     l1538:
  1962                           
  1963                           ;Proyecto02.c: 395:     OSCCONbits.IRCF2 = 1;
  1964  0669  1683               	bsf	3,5	;RP0=1, select bank1
  1965  066A  1303               	bcf	3,6	;RP1=0, select bank1
  1966  066B  170F               	bsf	15,6	;volatile
  1967  066C                     l1540:
  1968                           
  1969                           ;Proyecto02.c: 396:     OSCCONbits.IRCF1 = 1;
  1970  066C  168F               	bsf	15,5	;volatile
  1971  066D                     l1542:
  1972                           
  1973                           ;Proyecto02.c: 397:     OSCCONbits.IRCF0 = 1;
  1974  066D  160F               	bsf	15,4	;volatile
  1975  066E                     l1544:
  1976                           
  1977                           ;Proyecto02.c: 398:     OSCCONbits.SCS = 1;
  1978  066E  140F               	bsf	15,0	;volatile
  1979  066F                     l1546:
  1980                           
  1981                           ;Proyecto02.c: 401:     OPTION_REGbits.T0CS = 0;
  1982  066F  1281               	bcf	1,5	;volatile
  1983  0670                     l1548:
  1984                           
  1985                           ;Proyecto02.c: 402:     OPTION_REGbits.PSA = 0;
  1986  0670  1181               	bcf	1,3	;volatile
  1987  0671                     l1550:
  1988                           
  1989                           ;Proyecto02.c: 403:     OPTION_REGbits.PS2 = 1;
  1990  0671  1501               	bsf	1,2	;volatile
  1991  0672                     l1552:
  1992                           
  1993                           ;Proyecto02.c: 404:     OPTION_REGbits.PS1 = 1;
  1994  0672  1481               	bsf	1,1	;volatile
  1995  0673                     l1554:
  1996                           
  1997                           ;Proyecto02.c: 405:     OPTION_REGbits.PS0 = 0;
  1998  0673  1001               	bcf	1,0	;volatile
  1999  0674                     l1556:
  2000                           
  2001                           ;Proyecto02.c: 406:     TMR0 = 247;
  2002  0674  30F7               	movlw	247
  2003  0675  1283               	bcf	3,5	;RP0=0, select bank0
  2004  0676  1303               	bcf	3,6	;RP1=0, select bank0
  2005  0677  0081               	movwf	1	;volatile
  2006  0678                     l1558:
  2007                           
  2008                           ;Proyecto02.c: 409:     ADCON1bits.ADFM = 0;
  2009  0678  1683               	bsf	3,5	;RP0=1, select bank1
  2010  0679  1303               	bcf	3,6	;RP1=0, select bank1
  2011  067A  139F               	bcf	31,7	;volatile
  2012  067B                     l1560:
  2013                           
  2014                           ;Proyecto02.c: 410:     ADCON1bits.VCFG0 = 0;
  2015  067B  121F               	bcf	31,4	;volatile
  2016  067C                     l1562:
  2017                           
  2018                           ;Proyecto02.c: 411:     ADCON1bits.VCFG1 = 0;
  2019  067C  129F               	bcf	31,5	;volatile
  2020  067D                     l1564:
  2021                           
  2022                           ;Proyecto02.c: 412:     ADCON0bits.ADCS = 0b10;
  2023  067D  1283               	bcf	3,5	;RP0=0, select bank0
  2024  067E  1303               	bcf	3,6	;RP1=0, select bank0
  2025  067F  081F               	movf	31,w	;volatile
  2026  0680  393F               	andlw	-193
  2027  0681  3880               	iorlw	128
  2028  0682  009F               	movwf	31	;volatile
  2029  0683                     l1566:
  2030                           
  2031                           ;Proyecto02.c: 413:     ADCON0bits.CHS = 0;
  2032  0683  30C3               	movlw	-61
  2033  0684  059F               	andwf	31,f	;volatile
  2034  0685                     l1568:
  2035                           
  2036                           ;Proyecto02.c: 414:     _delay((unsigned long)((50)*(8000000/4000000.0)));
  2037  0685  3020               	movlw	32
  2038  0686  1283               	bcf	3,5	;RP0=0, select bank0
  2039  0687  1303               	bcf	3,6	;RP1=0, select bank0
  2040  0688  00A0               	movwf	??_setup
  2041  0689                     u967:
  2042  0689  0BA0               	decfsz	??_setup,f
  2043  068A  2E89               	goto	u967
  2044  068B  0000               	nop
  2045  068C                     l1570:
  2046                           
  2047                           ;Proyecto02.c: 415:     ADCON0bits.ADON = 1;
  2048  068C  1283               	bcf	3,5	;RP0=0, select bank0
  2049  068D  1303               	bcf	3,6	;RP1=0, select bank0
  2050  068E  141F               	bsf	31,0	;volatile
  2051  068F                     l1572:
  2052                           
  2053                           ;Proyecto02.c: 418:     TRISCbits.TRISC2 = 1;
  2054  068F  1683               	bsf	3,5	;RP0=1, select bank1
  2055  0690  1303               	bcf	3,6	;RP1=0, select bank1
  2056  0691  1507               	bsf	7,2	;volatile
  2057  0692                     l1574:
  2058                           
  2059                           ;Proyecto02.c: 419:     TRISCbits.TRISC1 = 1;
  2060  0692  1487               	bsf	7,1	;volatile
  2061  0693                     l1576:
  2062                           
  2063                           ;Proyecto02.c: 420:     PR2 = 255;
  2064  0693  30FF               	movlw	255
  2065  0694  0092               	movwf	18	;volatile
  2066  0695                     l1578:
  2067                           
  2068                           ;Proyecto02.c: 421:     CCP1CONbits.P1M = 0;
  2069  0695  303F               	movlw	-193
  2070  0696  1283               	bcf	3,5	;RP0=0, select bank0
  2071  0697  1303               	bcf	3,6	;RP1=0, select bank0
  2072  0698  0597               	andwf	23,f	;volatile
  2073  0699                     l1580:
  2074                           
  2075                           ;Proyecto02.c: 422:     CCP1CONbits.CCP1M = 0b1100;
  2076  0699  0817               	movf	23,w	;volatile
  2077  069A  39F0               	andlw	-16
  2078  069B  380C               	iorlw	12
  2079  069C  0097               	movwf	23	;volatile
  2080  069D                     l1582:
  2081                           
  2082                           ;Proyecto02.c: 423:     CCP2CONbits.CCP2M = 0b1100;
  2083  069D  081D               	movf	29,w	;volatile
  2084  069E  39F0               	andlw	-16
  2085  069F  380C               	iorlw	12
  2086  06A0  009D               	movwf	29	;volatile
  2087  06A1                     l1584:
  2088                           
  2089                           ;Proyecto02.c: 424:     CCPR1L = 0x0f;
  2090  06A1  300F               	movlw	15
  2091  06A2  0095               	movwf	21	;volatile
  2092  06A3                     l1586:
  2093                           
  2094                           ;Proyecto02.c: 425:     CCPR2L = 0x0f;
  2095  06A3  300F               	movlw	15
  2096  06A4  009B               	movwf	27	;volatile
  2097  06A5                     l1588:
  2098                           
  2099                           ;Proyecto02.c: 426:     CCP1CONbits.DC1B = 0;
  2100  06A5  30CF               	movlw	-49
  2101  06A6  0597               	andwf	23,f	;volatile
  2102  06A7                     l1590:
  2103                           
  2104                           ;Proyecto02.c: 427:     CCP2CONbits.DC2B0 = 0;
  2105  06A7  121D               	bcf	29,4	;volatile
  2106  06A8                     l1592:
  2107                           
  2108                           ;Proyecto02.c: 428:     CCP2CONbits.DC2B1 = 0;
  2109  06A8  129D               	bcf	29,5	;volatile
  2110  06A9                     l1594:
  2111                           
  2112                           ;Proyecto02.c: 431:     PIR1bits.TMR2IF = 0;
  2113  06A9  108C               	bcf	12,1	;volatile
  2114  06AA                     l1596:
  2115                           
  2116                           ;Proyecto02.c: 432:     T2CONbits.T2CKPS = 0b11;
  2117  06AA  3003               	movlw	3
  2118  06AB  0492               	iorwf	18,f	;volatile
  2119  06AC                     l1598:
  2120                           
  2121                           ;Proyecto02.c: 433:     T2CONbits.TMR2ON = 1;
  2122  06AC  1512               	bsf	18,2	;volatile
  2123  06AD                     l183:	
  2124                           ;Proyecto02.c: 435:     while(PIR1bits.TMR2IF == 0);
  2125                           
  2126  06AD  1C8C               	btfss	12,1	;volatile
  2127  06AE  2EB0               	goto	u551
  2128  06AF  2EB1               	goto	u550
  2129  06B0                     u551:
  2130  06B0  2EAD               	goto	l183
  2131  06B1                     u550:
  2132  06B1                     l185:
  2133                           
  2134                           ;Proyecto02.c: 436:     PIR1bits.TMR2IF = 0;
  2135  06B1  108C               	bcf	12,1	;volatile
  2136                           
  2137                           ;Proyecto02.c: 437:     TRISCbits.TRISC2 = 0;
  2138  06B2  1683               	bsf	3,5	;RP0=1, select bank1
  2139  06B3  1303               	bcf	3,6	;RP1=0, select bank1
  2140  06B4  1107               	bcf	7,2	;volatile
  2141                           
  2142                           ;Proyecto02.c: 438:     TRISCbits.TRISC1 = 0;
  2143  06B5  1087               	bcf	7,1	;volatile
  2144                           
  2145                           ;Proyecto02.c: 442:     TXSTAbits.SYNC = 0;
  2146  06B6  1218               	bcf	24,4	;volatile
  2147                           
  2148                           ;Proyecto02.c: 443:     TXSTAbits.BRGH = 0;
  2149  06B7  1118               	bcf	24,2	;volatile
  2150                           
  2151                           ;Proyecto02.c: 444:     BAUDCTLbits.BRG16 = 1;
  2152  06B8  1683               	bsf	3,5	;RP0=1, select bank3
  2153  06B9  1703               	bsf	3,6	;RP1=1, select bank3
  2154  06BA  1587               	bsf	7,3	;volatile
  2155  06BB                     l1600:
  2156                           
  2157                           ;Proyecto02.c: 445:     SPBRG = 51;
  2158  06BB  3033               	movlw	51
  2159  06BC  1683               	bsf	3,5	;RP0=1, select bank1
  2160  06BD  1303               	bcf	3,6	;RP1=0, select bank1
  2161  06BE  0099               	movwf	25	;volatile
  2162  06BF                     l1602:
  2163                           
  2164                           ;Proyecto02.c: 446:     SPBRGH = 0;
  2165  06BF  019A               	clrf	26	;volatile
  2166  06C0                     l1604:
  2167                           
  2168                           ;Proyecto02.c: 447:     RCSTAbits.SPEN = 1;
  2169  06C0  1283               	bcf	3,5	;RP0=0, select bank0
  2170  06C1  1303               	bcf	3,6	;RP1=0, select bank0
  2171  06C2  1798               	bsf	24,7	;volatile
  2172  06C3                     l1606:
  2173                           
  2174                           ;Proyecto02.c: 448:     RCSTAbits.RX9 = 0;
  2175  06C3  1318               	bcf	24,6	;volatile
  2176  06C4                     l1608:
  2177                           
  2178                           ;Proyecto02.c: 449:     RCSTAbits.CREN = 1;
  2179  06C4  1618               	bsf	24,4	;volatile
  2180  06C5                     l1610:
  2181                           
  2182                           ;Proyecto02.c: 450:     TXSTAbits.TXEN = 1;
  2183  06C5  1683               	bsf	3,5	;RP0=1, select bank1
  2184  06C6  1303               	bcf	3,6	;RP1=0, select bank1
  2185  06C7  1698               	bsf	24,5	;volatile
  2186  06C8                     l1612:
  2187                           
  2188                           ;Proyecto02.c: 453:     OPTION_REGbits.nRBPU = 0;
  2189  06C8  1381               	bcf	1,7	;volatile
  2190  06C9                     l1614:
  2191                           
  2192                           ;Proyecto02.c: 454:     WPUBbits.WPUB7 = 1;
  2193  06C9  1795               	bsf	21,7	;volatile
  2194  06CA                     l1616:
  2195                           
  2196                           ;Proyecto02.c: 455:     WPUBbits.WPUB6 = 1;
  2197  06CA  1715               	bsf	21,6	;volatile
  2198  06CB                     l1618:
  2199                           
  2200                           ;Proyecto02.c: 456:     IOCBbits.IOCB7 = 1;
  2201  06CB  1796               	bsf	22,7	;volatile
  2202  06CC                     l1620:
  2203                           
  2204                           ;Proyecto02.c: 457:     IOCBbits.IOCB6 = 1;
  2205  06CC  1716               	bsf	22,6	;volatile
  2206  06CD                     l1622:
  2207                           
  2208                           ;Proyecto02.c: 460:     INTCONbits.GIE = 1;
  2209  06CD  178B               	bsf	11,7	;volatile
  2210  06CE                     l1624:
  2211                           
  2212                           ;Proyecto02.c: 461:     INTCONbits.PEIE = 1;
  2213  06CE  170B               	bsf	11,6	;volatile
  2214  06CF                     l1626:
  2215                           
  2216                           ;Proyecto02.c: 462:     INTCONbits.RBIF = 0;
  2217  06CF  100B               	bcf	11,0	;volatile
  2218  06D0                     l1628:
  2219                           
  2220                           ;Proyecto02.c: 463:     INTCONbits.RBIE = 1;
  2221  06D0  158B               	bsf	11,3	;volatile
  2222  06D1                     l1630:
  2223                           
  2224                           ;Proyecto02.c: 464:     PIR1bits.RCIF = 0;
  2225  06D1  1283               	bcf	3,5	;RP0=0, select bank0
  2226  06D2  1303               	bcf	3,6	;RP1=0, select bank0
  2227  06D3  128C               	bcf	12,5	;volatile
  2228  06D4                     l1632:
  2229                           
  2230                           ;Proyecto02.c: 465:     PIE1bits.RCIE = 1;
  2231  06D4  1683               	bsf	3,5	;RP0=1, select bank1
  2232  06D5  1303               	bcf	3,6	;RP1=0, select bank1
  2233  06D6  168C               	bsf	12,5	;volatile
  2234  06D7                     l1634:
  2235                           
  2236                           ;Proyecto02.c: 466:     PIR1bits.ADIF = 0;
  2237  06D7  1283               	bcf	3,5	;RP0=0, select bank0
  2238  06D8  1303               	bcf	3,6	;RP1=0, select bank0
  2239  06D9  130C               	bcf	12,6	;volatile
  2240  06DA                     l1636:
  2241                           
  2242                           ;Proyecto02.c: 467:     PIE1bits.ADIE = 1;
  2243  06DA  1683               	bsf	3,5	;RP0=1, select bank1
  2244  06DB  1303               	bcf	3,6	;RP1=0, select bank1
  2245  06DC  170C               	bsf	12,6	;volatile
  2246  06DD                     l186:
  2247  06DD  0008               	return
  2248  06DE                     __end_of_setup:
  2249                           
  2250                           	psect	text2
  2251  0724                     __ptext2:	
  2252 ;; *************** function _servo4Rotate90 *****************
  2253 ;; Defined at:
  2254 ;;		line 588 in file "Proyecto02.c"
  2255 ;; Parameters:    Size  Location     Type
  2256 ;;		None
  2257 ;; Auto vars:     Size  Location     Type
  2258 ;;  i               2    2[BANK0 ] unsigned int 
  2259 ;; Return value:  Size  Location     Type
  2260 ;;                  1    wreg      void 
  2261 ;; Registers used:
  2262 ;;		wreg, status,2
  2263 ;; Tracked objects:
  2264 ;;		On entry : 0/0
  2265 ;;		On exit  : 0/0
  2266 ;;		Unchanged: 0/0
  2267 ;; Data sizes:     COMMON   BANK0   BANK1   BANK3   BANK2
  2268 ;;      Params:         0       0       0       0       0
  2269 ;;      Locals:         0       2       0       0       0
  2270 ;;      Temps:          0       2       0       0       0
  2271 ;;      Totals:         0       4       0       0       0
  2272 ;;Total ram usage:        4 bytes
  2273 ;; Hardware stack levels used:    1
  2274 ;; Hardware stack levels required when called:    2
  2275 ;; This function calls:
  2276 ;;		Nothing
  2277 ;; This function is called by:
  2278 ;;		_main
  2279 ;; This function uses a non-reentrant model
  2280 ;;
  2281                           
  2282                           
  2283                           ;psect for function _servo4Rotate90
  2284  0724                     _servo4Rotate90:
  2285  0724                     l1476:	
  2286                           ;incstack = 0
  2287                           ; Regs used in _servo4Rotate90: [wreg+status,2]
  2288                           
  2289                           
  2290                           ;Proyecto02.c: 589:   unsigned int i;;Proyecto02.c: 590:   for (i = 0; i <50; i ++){
  2291  0724  1283               	bcf	3,5	;RP0=0, select bank0
  2292  0725  1303               	bcf	3,6	;RP1=0, select bank0
  2293  0726  01A2               	clrf	servo4Rotate90@i
  2294  0727  01A3               	clrf	servo4Rotate90@i+1
  2295  0728                     l236:
  2296                           
  2297                           ;Proyecto02.c: 591:     PORTCbits.RC1 = 1;
  2298  0728  1487               	bsf	7,1	;volatile
  2299  0729                     l1482:
  2300                           
  2301                           ;Proyecto02.c: 592:     _delay((unsigned long)((1500)*(8000000/4000000.0)));
  2302  0729  3004               	movlw	4
  2303  072A  1283               	bcf	3,5	;RP0=0, select bank0
  2304  072B  1303               	bcf	3,6	;RP1=0, select bank0
  2305  072C  00A1               	movwf	??_servo4Rotate90+1
  2306  072D  30E3               	movlw	227
  2307  072E  00A0               	movwf	??_servo4Rotate90
  2308  072F                     u977:
  2309  072F  0BA0               	decfsz	??_servo4Rotate90,f
  2310  0730  2F2F               	goto	u977
  2311  0731  0BA1               	decfsz	??_servo4Rotate90+1,f
  2312  0732  2F2F               	goto	u977
  2313  0733  2F34               	nop2
  2314  0734                     l1484:
  2315                           
  2316                           ;Proyecto02.c: 593:     PORTCbits.RC1 = 0;
  2317  0734  1283               	bcf	3,5	;RP0=0, select bank0
  2318  0735  1303               	bcf	3,6	;RP1=0, select bank0
  2319  0736  1087               	bcf	7,1	;volatile
  2320                           
  2321                           ;Proyecto02.c: 594:     _delay((unsigned long)((18500)*(8000000/4000000.0)));
  2322  0737  3031               	movlw	49
  2323  0738  1283               	bcf	3,5	;RP0=0, select bank0
  2324  0739  1303               	bcf	3,6	;RP1=0, select bank0
  2325  073A  00A1               	movwf	??_servo4Rotate90+1
  2326  073B  300B               	movlw	11
  2327  073C  00A0               	movwf	??_servo4Rotate90
  2328  073D                     u987:
  2329  073D  0BA0               	decfsz	??_servo4Rotate90,f
  2330  073E  2F3D               	goto	u987
  2331  073F  0BA1               	decfsz	??_servo4Rotate90+1,f
  2332  0740  2F3D               	goto	u987
  2333                           
  2334                           ;Proyecto02.c: 595:   }
  2335  0741  3001               	movlw	1
  2336  0742  1283               	bcf	3,5	;RP0=0, select bank0
  2337  0743  1303               	bcf	3,6	;RP1=0, select bank0
  2338  0744  07A2               	addwf	servo4Rotate90@i,f
  2339  0745  1803               	skipnc
  2340  0746  0AA3               	incf	servo4Rotate90@i+1,f
  2341  0747  3000               	movlw	0
  2342  0748  07A3               	addwf	servo4Rotate90@i+1,f
  2343  0749  3000               	movlw	0
  2344  074A  0223               	subwf	servo4Rotate90@i+1,w
  2345  074B  3032               	movlw	50
  2346  074C  1903               	skipnz
  2347  074D  0222               	subwf	servo4Rotate90@i,w
  2348  074E  1C03               	skipc
  2349  074F  2F51               	goto	u501
  2350  0750  2F52               	goto	u500
  2351  0751                     u501:
  2352  0751  2F28               	goto	l236
  2353  0752                     u500:
  2354  0752                     l238:
  2355  0752  0008               	return
  2356  0753                     __end_of_servo4Rotate90:
  2357                           
  2358                           	psect	text3
  2359  0279                     __ptext3:	
  2360 ;; *************** function _servo4Rotate0 *****************
  2361 ;; Defined at:
  2362 ;;		line 578 in file "Proyecto02.c"
  2363 ;; Parameters:    Size  Location     Type
  2364 ;;		None
  2365 ;; Auto vars:     Size  Location     Type
  2366 ;;  i               2    2[BANK0 ] unsigned int 
  2367 ;; Return value:  Size  Location     Type
  2368 ;;                  1    wreg      void 
  2369 ;; Registers used:
  2370 ;;		wreg, status,2
  2371 ;; Tracked objects:
  2372 ;;		On entry : 0/0
  2373 ;;		On exit  : 0/0
  2374 ;;		Unchanged: 0/0
  2375 ;; Data sizes:     COMMON   BANK0   BANK1   BANK3   BANK2
  2376 ;;      Params:         0       0       0       0       0
  2377 ;;      Locals:         0       2       0       0       0
  2378 ;;      Temps:          0       2       0       0       0
  2379 ;;      Totals:         0       4       0       0       0
  2380 ;;Total ram usage:        4 bytes
  2381 ;; Hardware stack levels used:    1
  2382 ;; Hardware stack levels required when called:    2
  2383 ;; This function calls:
  2384 ;;		Nothing
  2385 ;; This function is called by:
  2386 ;;		_main
  2387 ;; This function uses a non-reentrant model
  2388 ;;
  2389                           
  2390                           
  2391                           ;psect for function _servo4Rotate0
  2392  0279                     _servo4Rotate0:
  2393  0279                     l1466:	
  2394                           ;incstack = 0
  2395                           ; Regs used in _servo4Rotate0: [wreg+status,2]
  2396                           
  2397                           
  2398                           ;Proyecto02.c: 579:   unsigned int i;;Proyecto02.c: 580:   for (i = 0; i <50; i ++){
  2399  0279  1283               	bcf	3,5	;RP0=0, select bank0
  2400  027A  1303               	bcf	3,6	;RP1=0, select bank0
  2401  027B  01A2               	clrf	servo4Rotate0@i
  2402  027C  01A3               	clrf	servo4Rotate0@i+1
  2403  027D                     l231:
  2404                           
  2405                           ;Proyecto02.c: 581:     PORTCbits.RC1 = 1;
  2406  027D  1487               	bsf	7,1	;volatile
  2407  027E                     l1472:
  2408                           
  2409                           ;Proyecto02.c: 582:     _delay((unsigned long)((800)*(8000000/4000000.0)));
  2410  027E  30E4               	movlw	228
  2411  027F  1283               	bcf	3,5	;RP0=0, select bank0
  2412  0280  1303               	bcf	3,6	;RP1=0, select bank0
  2413  0281  00A0               	movwf	??_servo4Rotate0
  2414  0282                     u997:
  2415  0282  2A83               	nop2
  2416  0283  2A84               	nop2
  2417  0284  0BA0               	decfsz	??_servo4Rotate0,f
  2418  0285  2A82               	goto	u997
  2419  0286  0000               	nop
  2420  0287                     l1474:
  2421                           
  2422                           ;Proyecto02.c: 583:     PORTCbits.RC1 = 0;
  2423  0287  1283               	bcf	3,5	;RP0=0, select bank0
  2424  0288  1303               	bcf	3,6	;RP1=0, select bank0
  2425  0289  1087               	bcf	7,1	;volatile
  2426                           
  2427                           ;Proyecto02.c: 584:     _delay((unsigned long)((19200)*(8000000/4000000.0)));
  2428  028A  3032               	movlw	50
  2429  028B  1283               	bcf	3,5	;RP0=0, select bank0
  2430  028C  1303               	bcf	3,6	;RP1=0, select bank0
  2431  028D  00A1               	movwf	??_servo4Rotate0+1
  2432  028E  30DD               	movlw	221
  2433  028F  00A0               	movwf	??_servo4Rotate0
  2434  0290                     u1007:
  2435  0290  0BA0               	decfsz	??_servo4Rotate0,f
  2436  0291  2A90               	goto	u1007
  2437  0292  0BA1               	decfsz	??_servo4Rotate0+1,f
  2438  0293  2A90               	goto	u1007
  2439                           
  2440                           ;Proyecto02.c: 585:   }
  2441  0294  3001               	movlw	1
  2442  0295  1283               	bcf	3,5	;RP0=0, select bank0
  2443  0296  1303               	bcf	3,6	;RP1=0, select bank0
  2444  0297  07A2               	addwf	servo4Rotate0@i,f
  2445  0298  1803               	skipnc
  2446  0299  0AA3               	incf	servo4Rotate0@i+1,f
  2447  029A  3000               	movlw	0
  2448  029B  07A3               	addwf	servo4Rotate0@i+1,f
  2449  029C  3000               	movlw	0
  2450  029D  0223               	subwf	servo4Rotate0@i+1,w
  2451  029E  3032               	movlw	50
  2452  029F  1903               	skipnz
  2453  02A0  0222               	subwf	servo4Rotate0@i,w
  2454  02A1  1C03               	skipc
  2455  02A2  2AA4               	goto	u491
  2456  02A3  2AA5               	goto	u490
  2457  02A4                     u491:
  2458  02A4  2A7D               	goto	l231
  2459  02A5                     u490:
  2460  02A5                     l233:
  2461  02A5  0008               	return
  2462  02A6                     __end_of_servo4Rotate0:
  2463                           
  2464                           	psect	text4
  2465  0753                     __ptext4:	
  2466 ;; *************** function _servo3Rotate90 *****************
  2467 ;; Defined at:
  2468 ;;		line 568 in file "Proyecto02.c"
  2469 ;; Parameters:    Size  Location     Type
  2470 ;;		None
  2471 ;; Auto vars:     Size  Location     Type
  2472 ;;  i               2    2[BANK0 ] unsigned int 
  2473 ;; Return value:  Size  Location     Type
  2474 ;;                  1    wreg      void 
  2475 ;; Registers used:
  2476 ;;		wreg, status,2
  2477 ;; Tracked objects:
  2478 ;;		On entry : 0/0
  2479 ;;		On exit  : 0/0
  2480 ;;		Unchanged: 0/0
  2481 ;; Data sizes:     COMMON   BANK0   BANK1   BANK3   BANK2
  2482 ;;      Params:         0       0       0       0       0
  2483 ;;      Locals:         0       2       0       0       0
  2484 ;;      Temps:          0       2       0       0       0
  2485 ;;      Totals:         0       4       0       0       0
  2486 ;;Total ram usage:        4 bytes
  2487 ;; Hardware stack levels used:    1
  2488 ;; Hardware stack levels required when called:    2
  2489 ;; This function calls:
  2490 ;;		Nothing
  2491 ;; This function is called by:
  2492 ;;		_main
  2493 ;; This function uses a non-reentrant model
  2494 ;;
  2495                           
  2496                           
  2497                           ;psect for function _servo3Rotate90
  2498  0753                     _servo3Rotate90:
  2499  0753                     l1456:	
  2500                           ;incstack = 0
  2501                           ; Regs used in _servo3Rotate90: [wreg+status,2]
  2502                           
  2503                           
  2504                           ;Proyecto02.c: 569:   unsigned int i;;Proyecto02.c: 570:   for (i = 0; i <50; i ++){
  2505  0753  1283               	bcf	3,5	;RP0=0, select bank0
  2506  0754  1303               	bcf	3,6	;RP1=0, select bank0
  2507  0755  01A2               	clrf	servo3Rotate90@i
  2508  0756  01A3               	clrf	servo3Rotate90@i+1
  2509  0757                     l226:
  2510                           
  2511                           ;Proyecto02.c: 571:     PORTCbits.RC2 = 1;
  2512  0757  1507               	bsf	7,2	;volatile
  2513  0758                     l1462:
  2514                           
  2515                           ;Proyecto02.c: 572:     _delay((unsigned long)((1500)*(8000000/4000000.0)));
  2516  0758  3004               	movlw	4
  2517  0759  1283               	bcf	3,5	;RP0=0, select bank0
  2518  075A  1303               	bcf	3,6	;RP1=0, select bank0
  2519  075B  00A1               	movwf	??_servo3Rotate90+1
  2520  075C  30E3               	movlw	227
  2521  075D  00A0               	movwf	??_servo3Rotate90
  2522  075E                     u1017:
  2523  075E  0BA0               	decfsz	??_servo3Rotate90,f
  2524  075F  2F5E               	goto	u1017
  2525  0760  0BA1               	decfsz	??_servo3Rotate90+1,f
  2526  0761  2F5E               	goto	u1017
  2527  0762  2F63               	nop2
  2528  0763                     l1464:
  2529                           
  2530                           ;Proyecto02.c: 573:     PORTCbits.RC2 = 0;
  2531  0763  1283               	bcf	3,5	;RP0=0, select bank0
  2532  0764  1303               	bcf	3,6	;RP1=0, select bank0
  2533  0765  1107               	bcf	7,2	;volatile
  2534                           
  2535                           ;Proyecto02.c: 574:     _delay((unsigned long)((18500)*(8000000/4000000.0)));
  2536  0766  3031               	movlw	49
  2537  0767  1283               	bcf	3,5	;RP0=0, select bank0
  2538  0768  1303               	bcf	3,6	;RP1=0, select bank0
  2539  0769  00A1               	movwf	??_servo3Rotate90+1
  2540  076A  300B               	movlw	11
  2541  076B  00A0               	movwf	??_servo3Rotate90
  2542  076C                     u1027:
  2543  076C  0BA0               	decfsz	??_servo3Rotate90,f
  2544  076D  2F6C               	goto	u1027
  2545  076E  0BA1               	decfsz	??_servo3Rotate90+1,f
  2546  076F  2F6C               	goto	u1027
  2547                           
  2548                           ;Proyecto02.c: 575:   }
  2549  0770  3001               	movlw	1
  2550  0771  1283               	bcf	3,5	;RP0=0, select bank0
  2551  0772  1303               	bcf	3,6	;RP1=0, select bank0
  2552  0773  07A2               	addwf	servo3Rotate90@i,f
  2553  0774  1803               	skipnc
  2554  0775  0AA3               	incf	servo3Rotate90@i+1,f
  2555  0776  3000               	movlw	0
  2556  0777  07A3               	addwf	servo3Rotate90@i+1,f
  2557  0778  3000               	movlw	0
  2558  0779  0223               	subwf	servo3Rotate90@i+1,w
  2559  077A  3032               	movlw	50
  2560  077B  1903               	skipnz
  2561  077C  0222               	subwf	servo3Rotate90@i,w
  2562  077D  1C03               	skipc
  2563  077E  2F80               	goto	u481
  2564  077F  2F81               	goto	u480
  2565  0780                     u481:
  2566  0780  2F57               	goto	l226
  2567  0781                     u480:
  2568  0781                     l228:
  2569  0781  0008               	return
  2570  0782                     __end_of_servo3Rotate90:
  2571                           
  2572                           	psect	text5
  2573  02A6                     __ptext5:	
  2574 ;; *************** function _servo3Rotate0 *****************
  2575 ;; Defined at:
  2576 ;;		line 558 in file "Proyecto02.c"
  2577 ;; Parameters:    Size  Location     Type
  2578 ;;		None
  2579 ;; Auto vars:     Size  Location     Type
  2580 ;;  i               2    2[BANK0 ] unsigned int 
  2581 ;; Return value:  Size  Location     Type
  2582 ;;                  1    wreg      void 
  2583 ;; Registers used:
  2584 ;;		wreg, status,2
  2585 ;; Tracked objects:
  2586 ;;		On entry : 0/0
  2587 ;;		On exit  : 0/0
  2588 ;;		Unchanged: 0/0
  2589 ;; Data sizes:     COMMON   BANK0   BANK1   BANK3   BANK2
  2590 ;;      Params:         0       0       0       0       0
  2591 ;;      Locals:         0       2       0       0       0
  2592 ;;      Temps:          0       2       0       0       0
  2593 ;;      Totals:         0       4       0       0       0
  2594 ;;Total ram usage:        4 bytes
  2595 ;; Hardware stack levels used:    1
  2596 ;; Hardware stack levels required when called:    2
  2597 ;; This function calls:
  2598 ;;		Nothing
  2599 ;; This function is called by:
  2600 ;;		_main
  2601 ;; This function uses a non-reentrant model
  2602 ;;
  2603                           
  2604                           
  2605                           ;psect for function _servo3Rotate0
  2606  02A6                     _servo3Rotate0:
  2607  02A6                     l1446:	
  2608                           ;incstack = 0
  2609                           ; Regs used in _servo3Rotate0: [wreg+status,2]
  2610                           
  2611                           
  2612                           ;Proyecto02.c: 559:   unsigned int i;;Proyecto02.c: 560:   for (i = 0; i <50; i ++){
  2613  02A6  1283               	bcf	3,5	;RP0=0, select bank0
  2614  02A7  1303               	bcf	3,6	;RP1=0, select bank0
  2615  02A8  01A2               	clrf	servo3Rotate0@i
  2616  02A9  01A3               	clrf	servo3Rotate0@i+1
  2617  02AA                     l221:
  2618                           
  2619                           ;Proyecto02.c: 561:     PORTCbits.RC2 = 1;
  2620  02AA  1507               	bsf	7,2	;volatile
  2621  02AB                     l1452:
  2622                           
  2623                           ;Proyecto02.c: 562:     _delay((unsigned long)((800)*(8000000/4000000.0)));
  2624  02AB  30E4               	movlw	228
  2625  02AC  1283               	bcf	3,5	;RP0=0, select bank0
  2626  02AD  1303               	bcf	3,6	;RP1=0, select bank0
  2627  02AE  00A0               	movwf	??_servo3Rotate0
  2628  02AF                     u1037:
  2629  02AF  2AB0               	nop2
  2630  02B0  2AB1               	nop2
  2631  02B1  0BA0               	decfsz	??_servo3Rotate0,f
  2632  02B2  2AAF               	goto	u1037
  2633  02B3  0000               	nop
  2634  02B4                     l1454:
  2635                           
  2636                           ;Proyecto02.c: 563:     PORTCbits.RC2 = 0;
  2637  02B4  1283               	bcf	3,5	;RP0=0, select bank0
  2638  02B5  1303               	bcf	3,6	;RP1=0, select bank0
  2639  02B6  1107               	bcf	7,2	;volatile
  2640                           
  2641                           ;Proyecto02.c: 564:     _delay((unsigned long)((19200)*(8000000/4000000.0)));
  2642  02B7  3032               	movlw	50
  2643  02B8  1283               	bcf	3,5	;RP0=0, select bank0
  2644  02B9  1303               	bcf	3,6	;RP1=0, select bank0
  2645  02BA  00A1               	movwf	??_servo3Rotate0+1
  2646  02BB  30DD               	movlw	221
  2647  02BC  00A0               	movwf	??_servo3Rotate0
  2648  02BD                     u1047:
  2649  02BD  0BA0               	decfsz	??_servo3Rotate0,f
  2650  02BE  2ABD               	goto	u1047
  2651  02BF  0BA1               	decfsz	??_servo3Rotate0+1,f
  2652  02C0  2ABD               	goto	u1047
  2653                           
  2654                           ;Proyecto02.c: 565:   }
  2655  02C1  3001               	movlw	1
  2656  02C2  1283               	bcf	3,5	;RP0=0, select bank0
  2657  02C3  1303               	bcf	3,6	;RP1=0, select bank0
  2658  02C4  07A2               	addwf	servo3Rotate0@i,f
  2659  02C5  1803               	skipnc
  2660  02C6  0AA3               	incf	servo3Rotate0@i+1,f
  2661  02C7  3000               	movlw	0
  2662  02C8  07A3               	addwf	servo3Rotate0@i+1,f
  2663  02C9  3000               	movlw	0
  2664  02CA  0223               	subwf	servo3Rotate0@i+1,w
  2665  02CB  3032               	movlw	50
  2666  02CC  1903               	skipnz
  2667  02CD  0222               	subwf	servo3Rotate0@i,w
  2668  02CE  1C03               	skipc
  2669  02CF  2AD1               	goto	u471
  2670  02D0  2AD2               	goto	u470
  2671  02D1                     u471:
  2672  02D1  2AAA               	goto	l221
  2673  02D2                     u470:
  2674  02D2                     l223:
  2675  02D2  0008               	return
  2676  02D3                     __end_of_servo3Rotate0:
  2677                           
  2678                           	psect	text6
  2679  0782                     __ptext6:	
  2680 ;; *************** function _servo2Rotate90 *****************
  2681 ;; Defined at:
  2682 ;;		line 548 in file "Proyecto02.c"
  2683 ;; Parameters:    Size  Location     Type
  2684 ;;		None
  2685 ;; Auto vars:     Size  Location     Type
  2686 ;;  i               2    2[BANK0 ] unsigned int 
  2687 ;; Return value:  Size  Location     Type
  2688 ;;                  1    wreg      void 
  2689 ;; Registers used:
  2690 ;;		wreg, status,2
  2691 ;; Tracked objects:
  2692 ;;		On entry : 0/0
  2693 ;;		On exit  : 0/0
  2694 ;;		Unchanged: 0/0
  2695 ;; Data sizes:     COMMON   BANK0   BANK1   BANK3   BANK2
  2696 ;;      Params:         0       0       0       0       0
  2697 ;;      Locals:         0       2       0       0       0
  2698 ;;      Temps:          0       2       0       0       0
  2699 ;;      Totals:         0       4       0       0       0
  2700 ;;Total ram usage:        4 bytes
  2701 ;; Hardware stack levels used:    1
  2702 ;; Hardware stack levels required when called:    2
  2703 ;; This function calls:
  2704 ;;		Nothing
  2705 ;; This function is called by:
  2706 ;;		_main
  2707 ;; This function uses a non-reentrant model
  2708 ;;
  2709                           
  2710                           
  2711                           ;psect for function _servo2Rotate90
  2712  0782                     _servo2Rotate90:
  2713  0782                     l1516:	
  2714                           ;incstack = 0
  2715                           ; Regs used in _servo2Rotate90: [wreg+status,2]
  2716                           
  2717                           
  2718                           ;Proyecto02.c: 549:   unsigned int i;;Proyecto02.c: 550:   for (i = 0; i <50; i ++){
  2719  0782  1283               	bcf	3,5	;RP0=0, select bank0
  2720  0783  1303               	bcf	3,6	;RP1=0, select bank0
  2721  0784  01A2               	clrf	servo2Rotate90@i
  2722  0785  01A3               	clrf	servo2Rotate90@i+1
  2723  0786                     l216:
  2724                           
  2725                           ;Proyecto02.c: 551:     PORTCbits.RC3 = 1;
  2726  0786  1587               	bsf	7,3	;volatile
  2727  0787                     l1522:
  2728                           
  2729                           ;Proyecto02.c: 552:     _delay((unsigned long)((1500)*(8000000/4000000.0)));
  2730  0787  3004               	movlw	4
  2731  0788  1283               	bcf	3,5	;RP0=0, select bank0
  2732  0789  1303               	bcf	3,6	;RP1=0, select bank0
  2733  078A  00A1               	movwf	??_servo2Rotate90+1
  2734  078B  30E3               	movlw	227
  2735  078C  00A0               	movwf	??_servo2Rotate90
  2736  078D                     u1057:
  2737  078D  0BA0               	decfsz	??_servo2Rotate90,f
  2738  078E  2F8D               	goto	u1057
  2739  078F  0BA1               	decfsz	??_servo2Rotate90+1,f
  2740  0790  2F8D               	goto	u1057
  2741  0791  2F92               	nop2
  2742  0792                     l1524:
  2743                           
  2744                           ;Proyecto02.c: 553:     PORTCbits.RC3 = 0;
  2745  0792  1283               	bcf	3,5	;RP0=0, select bank0
  2746  0793  1303               	bcf	3,6	;RP1=0, select bank0
  2747  0794  1187               	bcf	7,3	;volatile
  2748                           
  2749                           ;Proyecto02.c: 554:     _delay((unsigned long)((18500)*(8000000/4000000.0)));
  2750  0795  3031               	movlw	49
  2751  0796  1283               	bcf	3,5	;RP0=0, select bank0
  2752  0797  1303               	bcf	3,6	;RP1=0, select bank0
  2753  0798  00A1               	movwf	??_servo2Rotate90+1
  2754  0799  300B               	movlw	11
  2755  079A  00A0               	movwf	??_servo2Rotate90
  2756  079B                     u1067:
  2757  079B  0BA0               	decfsz	??_servo2Rotate90,f
  2758  079C  2F9B               	goto	u1067
  2759  079D  0BA1               	decfsz	??_servo2Rotate90+1,f
  2760  079E  2F9B               	goto	u1067
  2761                           
  2762                           ;Proyecto02.c: 555:   }
  2763  079F  3001               	movlw	1
  2764  07A0  1283               	bcf	3,5	;RP0=0, select bank0
  2765  07A1  1303               	bcf	3,6	;RP1=0, select bank0
  2766  07A2  07A2               	addwf	servo2Rotate90@i,f
  2767  07A3  1803               	skipnc
  2768  07A4  0AA3               	incf	servo2Rotate90@i+1,f
  2769  07A5  3000               	movlw	0
  2770  07A6  07A3               	addwf	servo2Rotate90@i+1,f
  2771  07A7  3000               	movlw	0
  2772  07A8  0223               	subwf	servo2Rotate90@i+1,w
  2773  07A9  3032               	movlw	50
  2774  07AA  1903               	skipnz
  2775  07AB  0222               	subwf	servo2Rotate90@i,w
  2776  07AC  1C03               	skipc
  2777  07AD  2FAF               	goto	u541
  2778  07AE  2FB0               	goto	u540
  2779  07AF                     u541:
  2780  07AF  2F86               	goto	l216
  2781  07B0                     u540:
  2782  07B0                     l218:
  2783  07B0  0008               	return
  2784  07B1                     __end_of_servo2Rotate90:
  2785                           
  2786                           	psect	text7
  2787  02D3                     __ptext7:	
  2788 ;; *************** function _servo2Rotate0 *****************
  2789 ;; Defined at:
  2790 ;;		line 538 in file "Proyecto02.c"
  2791 ;; Parameters:    Size  Location     Type
  2792 ;;		None
  2793 ;; Auto vars:     Size  Location     Type
  2794 ;;  i               2    2[BANK0 ] unsigned int 
  2795 ;; Return value:  Size  Location     Type
  2796 ;;                  1    wreg      void 
  2797 ;; Registers used:
  2798 ;;		wreg, status,2
  2799 ;; Tracked objects:
  2800 ;;		On entry : 0/0
  2801 ;;		On exit  : 0/0
  2802 ;;		Unchanged: 0/0
  2803 ;; Data sizes:     COMMON   BANK0   BANK1   BANK3   BANK2
  2804 ;;      Params:         0       0       0       0       0
  2805 ;;      Locals:         0       2       0       0       0
  2806 ;;      Temps:          0       2       0       0       0
  2807 ;;      Totals:         0       4       0       0       0
  2808 ;;Total ram usage:        4 bytes
  2809 ;; Hardware stack levels used:    1
  2810 ;; Hardware stack levels required when called:    2
  2811 ;; This function calls:
  2812 ;;		Nothing
  2813 ;; This function is called by:
  2814 ;;		_main
  2815 ;; This function uses a non-reentrant model
  2816 ;;
  2817                           
  2818                           
  2819                           ;psect for function _servo2Rotate0
  2820  02D3                     _servo2Rotate0:
  2821  02D3                     l1506:	
  2822                           ;incstack = 0
  2823                           ; Regs used in _servo2Rotate0: [wreg+status,2]
  2824                           
  2825                           
  2826                           ;Proyecto02.c: 539:   unsigned int i;;Proyecto02.c: 540:   for (i = 0; i <50; i ++){
  2827  02D3  1283               	bcf	3,5	;RP0=0, select bank0
  2828  02D4  1303               	bcf	3,6	;RP1=0, select bank0
  2829  02D5  01A2               	clrf	servo2Rotate0@i
  2830  02D6  01A3               	clrf	servo2Rotate0@i+1
  2831  02D7                     l211:
  2832                           
  2833                           ;Proyecto02.c: 541:     PORTCbits.RC3 = 1;
  2834  02D7  1587               	bsf	7,3	;volatile
  2835  02D8                     l1512:
  2836                           
  2837                           ;Proyecto02.c: 542:     _delay((unsigned long)((800)*(8000000/4000000.0)));
  2838  02D8  30E4               	movlw	228
  2839  02D9  1283               	bcf	3,5	;RP0=0, select bank0
  2840  02DA  1303               	bcf	3,6	;RP1=0, select bank0
  2841  02DB  00A0               	movwf	??_servo2Rotate0
  2842  02DC                     u1077:
  2843  02DC  2ADD               	nop2
  2844  02DD  2ADE               	nop2
  2845  02DE  0BA0               	decfsz	??_servo2Rotate0,f
  2846  02DF  2ADC               	goto	u1077
  2847  02E0  0000               	nop
  2848  02E1                     l1514:
  2849                           
  2850                           ;Proyecto02.c: 543:     PORTCbits.RC3 = 0;
  2851  02E1  1283               	bcf	3,5	;RP0=0, select bank0
  2852  02E2  1303               	bcf	3,6	;RP1=0, select bank0
  2853  02E3  1187               	bcf	7,3	;volatile
  2854                           
  2855                           ;Proyecto02.c: 544:     _delay((unsigned long)((19200)*(8000000/4000000.0)));
  2856  02E4  3032               	movlw	50
  2857  02E5  1283               	bcf	3,5	;RP0=0, select bank0
  2858  02E6  1303               	bcf	3,6	;RP1=0, select bank0
  2859  02E7  00A1               	movwf	??_servo2Rotate0+1
  2860  02E8  30DD               	movlw	221
  2861  02E9  00A0               	movwf	??_servo2Rotate0
  2862  02EA                     u1087:
  2863  02EA  0BA0               	decfsz	??_servo2Rotate0,f
  2864  02EB  2AEA               	goto	u1087
  2865  02EC  0BA1               	decfsz	??_servo2Rotate0+1,f
  2866  02ED  2AEA               	goto	u1087
  2867                           
  2868                           ;Proyecto02.c: 545:   }
  2869  02EE  3001               	movlw	1
  2870  02EF  1283               	bcf	3,5	;RP0=0, select bank0
  2871  02F0  1303               	bcf	3,6	;RP1=0, select bank0
  2872  02F1  07A2               	addwf	servo2Rotate0@i,f
  2873  02F2  1803               	skipnc
  2874  02F3  0AA3               	incf	servo2Rotate0@i+1,f
  2875  02F4  3000               	movlw	0
  2876  02F5  07A3               	addwf	servo2Rotate0@i+1,f
  2877  02F6  3000               	movlw	0
  2878  02F7  0223               	subwf	servo2Rotate0@i+1,w
  2879  02F8  3032               	movlw	50
  2880  02F9  1903               	skipnz
  2881  02FA  0222               	subwf	servo2Rotate0@i,w
  2882  02FB  1C03               	skipc
  2883  02FC  2AFE               	goto	u531
  2884  02FD  2AFF               	goto	u530
  2885  02FE                     u531:
  2886  02FE  2AD7               	goto	l211
  2887  02FF                     u530:
  2888  02FF                     l213:
  2889  02FF  0008               	return
  2890  0300                     __end_of_servo2Rotate0:
  2891                           
  2892                           	psect	text8
  2893  07B1                     __ptext8:	
  2894 ;; *************** function _servo1Rotate90 *****************
  2895 ;; Defined at:
  2896 ;;		line 528 in file "Proyecto02.c"
  2897 ;; Parameters:    Size  Location     Type
  2898 ;;		None
  2899 ;; Auto vars:     Size  Location     Type
  2900 ;;  i               2    2[BANK0 ] unsigned int 
  2901 ;; Return value:  Size  Location     Type
  2902 ;;                  1    wreg      void 
  2903 ;; Registers used:
  2904 ;;		wreg, status,2
  2905 ;; Tracked objects:
  2906 ;;		On entry : 0/0
  2907 ;;		On exit  : 0/0
  2908 ;;		Unchanged: 0/0
  2909 ;; Data sizes:     COMMON   BANK0   BANK1   BANK3   BANK2
  2910 ;;      Params:         0       0       0       0       0
  2911 ;;      Locals:         0       2       0       0       0
  2912 ;;      Temps:          0       2       0       0       0
  2913 ;;      Totals:         0       4       0       0       0
  2914 ;;Total ram usage:        4 bytes
  2915 ;; Hardware stack levels used:    1
  2916 ;; Hardware stack levels required when called:    2
  2917 ;; This function calls:
  2918 ;;		Nothing
  2919 ;; This function is called by:
  2920 ;;		_main
  2921 ;; This function uses a non-reentrant model
  2922 ;;
  2923                           
  2924                           
  2925                           ;psect for function _servo1Rotate90
  2926  07B1                     _servo1Rotate90:
  2927  07B1                     l1496:	
  2928                           ;incstack = 0
  2929                           ; Regs used in _servo1Rotate90: [wreg+status,2]
  2930                           
  2931                           
  2932                           ;Proyecto02.c: 529:   unsigned int i;;Proyecto02.c: 530:   for (i = 0; i <50; i ++){
  2933  07B1  1283               	bcf	3,5	;RP0=0, select bank0
  2934  07B2  1303               	bcf	3,6	;RP1=0, select bank0
  2935  07B3  01A2               	clrf	servo1Rotate90@i
  2936  07B4  01A3               	clrf	servo1Rotate90@i+1
  2937  07B5                     l206:
  2938                           
  2939                           ;Proyecto02.c: 531:     PORTCbits.RC0 = 1;
  2940  07B5  1407               	bsf	7,0	;volatile
  2941  07B6                     l1502:
  2942                           
  2943                           ;Proyecto02.c: 532:     _delay((unsigned long)((1500)*(8000000/4000000.0)));
  2944  07B6  3004               	movlw	4
  2945  07B7  1283               	bcf	3,5	;RP0=0, select bank0
  2946  07B8  1303               	bcf	3,6	;RP1=0, select bank0
  2947  07B9  00A1               	movwf	??_servo1Rotate90+1
  2948  07BA  30E3               	movlw	227
  2949  07BB  00A0               	movwf	??_servo1Rotate90
  2950  07BC                     u1097:
  2951  07BC  0BA0               	decfsz	??_servo1Rotate90,f
  2952  07BD  2FBC               	goto	u1097
  2953  07BE  0BA1               	decfsz	??_servo1Rotate90+1,f
  2954  07BF  2FBC               	goto	u1097
  2955  07C0  2FC1               	nop2
  2956  07C1                     l1504:
  2957                           
  2958                           ;Proyecto02.c: 533:     PORTCbits.RC0 = 0;
  2959  07C1  1283               	bcf	3,5	;RP0=0, select bank0
  2960  07C2  1303               	bcf	3,6	;RP1=0, select bank0
  2961  07C3  1007               	bcf	7,0	;volatile
  2962                           
  2963                           ;Proyecto02.c: 534:     _delay((unsigned long)((18500)*(8000000/4000000.0)));
  2964  07C4  3031               	movlw	49
  2965  07C5  1283               	bcf	3,5	;RP0=0, select bank0
  2966  07C6  1303               	bcf	3,6	;RP1=0, select bank0
  2967  07C7  00A1               	movwf	??_servo1Rotate90+1
  2968  07C8  300B               	movlw	11
  2969  07C9  00A0               	movwf	??_servo1Rotate90
  2970  07CA                     u1107:
  2971  07CA  0BA0               	decfsz	??_servo1Rotate90,f
  2972  07CB  2FCA               	goto	u1107
  2973  07CC  0BA1               	decfsz	??_servo1Rotate90+1,f
  2974  07CD  2FCA               	goto	u1107
  2975                           
  2976                           ;Proyecto02.c: 535:   }
  2977  07CE  3001               	movlw	1
  2978  07CF  1283               	bcf	3,5	;RP0=0, select bank0
  2979  07D0  1303               	bcf	3,6	;RP1=0, select bank0
  2980  07D1  07A2               	addwf	servo1Rotate90@i,f
  2981  07D2  1803               	skipnc
  2982  07D3  0AA3               	incf	servo1Rotate90@i+1,f
  2983  07D4  3000               	movlw	0
  2984  07D5  07A3               	addwf	servo1Rotate90@i+1,f
  2985  07D6  3000               	movlw	0
  2986  07D7  0223               	subwf	servo1Rotate90@i+1,w
  2987  07D8  3032               	movlw	50
  2988  07D9  1903               	skipnz
  2989  07DA  0222               	subwf	servo1Rotate90@i,w
  2990  07DB  1C03               	skipc
  2991  07DC  2FDE               	goto	u521
  2992  07DD  2FDF               	goto	u520
  2993  07DE                     u521:
  2994  07DE  2FB5               	goto	l206
  2995  07DF                     u520:
  2996  07DF                     l208:
  2997  07DF  0008               	return
  2998  07E0                     __end_of_servo1Rotate90:
  2999                           
  3000                           	psect	text9
  3001  0FD3                     __ptext9:	
  3002 ;; *************** function _servo1Rotate0 *****************
  3003 ;; Defined at:
  3004 ;;		line 518 in file "Proyecto02.c"
  3005 ;; Parameters:    Size  Location     Type
  3006 ;;		None
  3007 ;; Auto vars:     Size  Location     Type
  3008 ;;  i               2    2[BANK0 ] unsigned int 
  3009 ;; Return value:  Size  Location     Type
  3010 ;;                  1    wreg      void 
  3011 ;; Registers used:
  3012 ;;		wreg, status,2
  3013 ;; Tracked objects:
  3014 ;;		On entry : 0/0
  3015 ;;		On exit  : 0/0
  3016 ;;		Unchanged: 0/0
  3017 ;; Data sizes:     COMMON   BANK0   BANK1   BANK3   BANK2
  3018 ;;      Params:         0       0       0       0       0
  3019 ;;      Locals:         0       2       0       0       0
  3020 ;;      Temps:          0       2       0       0       0
  3021 ;;      Totals:         0       4       0       0       0
  3022 ;;Total ram usage:        4 bytes
  3023 ;; Hardware stack levels used:    1
  3024 ;; Hardware stack levels required when called:    2
  3025 ;; This function calls:
  3026 ;;		Nothing
  3027 ;; This function is called by:
  3028 ;;		_main
  3029 ;; This function uses a non-reentrant model
  3030 ;;
  3031                           
  3032                           
  3033                           ;psect for function _servo1Rotate0
  3034  0FD3                     _servo1Rotate0:
  3035  0FD3                     l1486:	
  3036                           ;incstack = 0
  3037                           ; Regs used in _servo1Rotate0: [wreg+status,2]
  3038                           
  3039                           
  3040                           ;Proyecto02.c: 519:   unsigned int i;;Proyecto02.c: 520:   for (i = 0; i <50; i ++){
  3041  0FD3  1283               	bcf	3,5	;RP0=0, select bank0
  3042  0FD4  1303               	bcf	3,6	;RP1=0, select bank0
  3043  0FD5  01A2               	clrf	servo1Rotate0@i
  3044  0FD6  01A3               	clrf	servo1Rotate0@i+1
  3045  0FD7                     l201:
  3046                           
  3047                           ;Proyecto02.c: 521:     PORTCbits.RC0 = 1;
  3048  0FD7  1407               	bsf	7,0	;volatile
  3049  0FD8                     l1492:
  3050                           
  3051                           ;Proyecto02.c: 522:     _delay((unsigned long)((800)*(8000000/4000000.0)));
  3052  0FD8  30E4               	movlw	228
  3053  0FD9  1283               	bcf	3,5	;RP0=0, select bank0
  3054  0FDA  1303               	bcf	3,6	;RP1=0, select bank0
  3055  0FDB  00A0               	movwf	??_servo1Rotate0
  3056  0FDC                     u1117:
  3057  0FDC  2FDD               	nop2
  3058  0FDD  2FDE               	nop2
  3059  0FDE  0BA0               	decfsz	??_servo1Rotate0,f
  3060  0FDF  2FDC               	goto	u1117
  3061  0FE0  0000               	nop
  3062  0FE1                     l1494:
  3063                           
  3064                           ;Proyecto02.c: 523:     PORTCbits.RC0 = 0;
  3065  0FE1  1283               	bcf	3,5	;RP0=0, select bank0
  3066  0FE2  1303               	bcf	3,6	;RP1=0, select bank0
  3067  0FE3  1007               	bcf	7,0	;volatile
  3068                           
  3069                           ;Proyecto02.c: 524:     _delay((unsigned long)((19200)*(8000000/4000000.0)));
  3070  0FE4  3032               	movlw	50
  3071  0FE5  1283               	bcf	3,5	;RP0=0, select bank0
  3072  0FE6  1303               	bcf	3,6	;RP1=0, select bank0
  3073  0FE7  00A1               	movwf	??_servo1Rotate0+1
  3074  0FE8  30DD               	movlw	221
  3075  0FE9  00A0               	movwf	??_servo1Rotate0
  3076  0FEA                     u1127:
  3077  0FEA  0BA0               	decfsz	??_servo1Rotate0,f
  3078  0FEB  2FEA               	goto	u1127
  3079  0FEC  0BA1               	decfsz	??_servo1Rotate0+1,f
  3080  0FED  2FEA               	goto	u1127
  3081                           
  3082                           ;Proyecto02.c: 525:   }
  3083  0FEE  3001               	movlw	1
  3084  0FEF  1283               	bcf	3,5	;RP0=0, select bank0
  3085  0FF0  1303               	bcf	3,6	;RP1=0, select bank0
  3086  0FF1  07A2               	addwf	servo1Rotate0@i,f
  3087  0FF2  1803               	skipnc
  3088  0FF3  0AA3               	incf	servo1Rotate0@i+1,f
  3089  0FF4  3000               	movlw	0
  3090  0FF5  07A3               	addwf	servo1Rotate0@i+1,f
  3091  0FF6  3000               	movlw	0
  3092  0FF7  0223               	subwf	servo1Rotate0@i+1,w
  3093  0FF8  3032               	movlw	50
  3094  0FF9  1903               	skipnz
  3095  0FFA  0222               	subwf	servo1Rotate0@i,w
  3096  0FFB  1C03               	skipc
  3097  0FFC  2FFE               	goto	u511
  3098  0FFD  2FFF               	goto	u510
  3099  0FFE                     u511:
  3100  0FFE  2FD7               	goto	l201
  3101  0FFF                     u510:
  3102  0FFF                     l203:
  3103  0FFF  0008               	return
  3104  1000                     __end_of_servo1Rotate0:
  3105                           
  3106                           	psect	text10
  3107  06DE                     __ptext10:	
  3108 ;; *************** function _send_str *****************
  3109 ;; Defined at:
  3110 ;;		line 478 in file "Proyecto02.c"
  3111 ;; Parameters:    Size  Location     Type
  3112 ;;  st              2    1[BANK0 ] PTR unsigned char 
  3113 ;;		 -> STR_22(6), STR_21(22), STR_20(21), STR_19(24), 
  3114 ;;		 -> STR_18(23), STR_17(22), STR_16(21), STR_15(24), 
  3115 ;;		 -> STR_14(23), STR_13(19), STR_12(7), STR_11(32), 
  3116 ;;		 -> STR_10(30), STR_9(28), STR_8(27), STR_7(14), 
  3117 ;;		 -> STR_6(36), STR_5(33), STR_4(31), STR_3(29), 
  3118 ;;		 -> STR_2(16), STR_1(28), 
  3119 ;; Auto vars:     Size  Location     Type
  3120 ;;  i               2    6[BANK0 ] int 
  3121 ;; Return value:  Size  Location     Type
  3122 ;;                  1    wreg      void 
  3123 ;; Registers used:
  3124 ;;		wreg, fsr0l, fsr0h, status,2, status,0, btemp+1, pclath, cstack
  3125 ;; Tracked objects:
  3126 ;;		On entry : 0/0
  3127 ;;		On exit  : 0/0
  3128 ;;		Unchanged: 0/0
  3129 ;; Data sizes:     COMMON   BANK0   BANK1   BANK3   BANK2
  3130 ;;      Params:         0       2       0       0       0
  3131 ;;      Locals:         0       2       0       0       0
  3132 ;;      Temps:          0       3       0       0       0
  3133 ;;      Totals:         0       7       0       0       0
  3134 ;;Total ram usage:        7 bytes
  3135 ;; Hardware stack levels used:    1
  3136 ;; Hardware stack levels required when called:    3
  3137 ;; This function calls:
  3138 ;;		_send_char
  3139 ;; This function is called by:
  3140 ;;		_main
  3141 ;; This function uses a non-reentrant model
  3142 ;;
  3143                           
  3144                           
  3145                           ;psect for function _send_str
  3146  06DE                     _send_str:
  3147  06DE                     l1638:	
  3148                           ;incstack = 0
  3149                           ; Regs used in _send_str: [wreg-fsr0h+status,2+status,0+btemp+1+pclath+cstack]
  3150                           
  3151                           
  3152                           ;Proyecto02.c: 479:     int i = 0;
  3153  06DE  1283               	bcf	3,5	;RP0=0, select bank0
  3154  06DF  1303               	bcf	3,6	;RP1=0, select bank0
  3155  06E0  01A6               	clrf	send_str@i
  3156  06E1  01A7               	clrf	send_str@i+1
  3157                           
  3158                           ;Proyecto02.c: 480:     while (st[i] != 0){
  3159  06E2  2F07               	goto	l1644
  3160  06E3                     l1640:
  3161                           
  3162                           ;Proyecto02.c: 481:         send_char(st[i]);
  3163  06E3  0826               	movf	send_str@i,w
  3164  06E4  0721               	addwf	send_str@st,w
  3165  06E5  00A4               	movwf	??_send_str+1
  3166  06E6  0822               	movf	send_str@st+1,w
  3167  06E7  00A3               	movwf	??_send_str
  3168  06E8  1803               	skipnc
  3169  06E9  0AA3               	incf	??_send_str,f
  3170  06EA  1FA6               	btfss	send_str@i,7
  3171  06EB  2EED               	goto	u560
  3172  06EC  03A3               	decf	??_send_str,f
  3173  06ED                     u560:
  3174  06ED  1283               	bcf	3,5	;RP0=0, select bank0
  3175  06EE  1303               	bcf	3,6	;RP1=0, select bank0
  3176  06EF  0823               	movf	??_send_str,w
  3177  06F0  00A5               	movwf	??_send_str+2
  3178  06F1  0825               	movf	??_send_str+2,w
  3179  06F2  00FF               	movwf	btemp+1
  3180  06F3  0824               	movf	??_send_str+1,w
  3181  06F4  0084               	movwf	4
  3182  06F5  120A  118A  27E0  120A  118A  	fcall	stringtab
  3183  06FA  120A  118A  27F2  120A  118A  	fcall	_send_char
  3184  06FF                     l1642:
  3185                           
  3186                           ;Proyecto02.c: 482:         i++;
  3187  06FF  3001               	movlw	1
  3188  0700  1283               	bcf	3,5	;RP0=0, select bank0
  3189  0701  1303               	bcf	3,6	;RP1=0, select bank0
  3190  0702  07A6               	addwf	send_str@i,f
  3191  0703  1803               	skipnc
  3192  0704  0AA7               	incf	send_str@i+1,f
  3193  0705  3000               	movlw	0
  3194  0706  07A7               	addwf	send_str@i+1,f
  3195  0707                     l1644:
  3196                           
  3197                           ;Proyecto02.c: 480:     while (st[i] != 0){
  3198  0707  0826               	movf	send_str@i,w
  3199  0708  0721               	addwf	send_str@st,w
  3200  0709  00A4               	movwf	??_send_str+1
  3201  070A  0822               	movf	send_str@st+1,w
  3202  070B  00A3               	movwf	??_send_str
  3203  070C  1803               	skipnc
  3204  070D  0AA3               	incf	??_send_str,f
  3205  070E  1FA6               	btfss	send_str@i,7
  3206  070F  2F11               	goto	u570
  3207  0710  03A3               	decf	??_send_str,f
  3208  0711                     u570:
  3209  0711  1283               	bcf	3,5	;RP0=0, select bank0
  3210  0712  1303               	bcf	3,6	;RP1=0, select bank0
  3211  0713  0823               	movf	??_send_str,w
  3212  0714  00A5               	movwf	??_send_str+2
  3213  0715  0825               	movf	??_send_str+2,w
  3214  0716  00FF               	movwf	btemp+1
  3215  0717  0824               	movf	??_send_str+1,w
  3216  0718  0084               	movwf	4
  3217  0719  120A  118A  27E0  120A  118A  	fcall	stringtab
  3218  071E  3A00               	xorlw	0
  3219  071F  1D03               	skipz
  3220  0720  2F22               	goto	u581
  3221  0721  2F23               	goto	u580
  3222  0722                     u581:
  3223  0722  2EE3               	goto	l1640
  3224  0723                     u580:
  3225  0723                     l198:
  3226  0723  0008               	return
  3227  0724                     __end_of_send_str:
  3228                           
  3229                           	psect	text11
  3230  07F2                     __ptext11:	
  3231 ;; *************** function _send_char *****************
  3232 ;; Defined at:
  3233 ;;		line 473 in file "Proyecto02.c"
  3234 ;; Parameters:    Size  Location     Type
  3235 ;;  dato            1    wreg     unsigned char 
  3236 ;; Auto vars:     Size  Location     Type
  3237 ;;  dato            1    0[BANK0 ] unsigned char 
  3238 ;; Return value:  Size  Location     Type
  3239 ;;                  1    wreg      void 
  3240 ;; Registers used:
  3241 ;;		wreg
  3242 ;; Tracked objects:
  3243 ;;		On entry : 0/0
  3244 ;;		On exit  : 0/0
  3245 ;;		Unchanged: 0/0
  3246 ;; Data sizes:     COMMON   BANK0   BANK1   BANK3   BANK2
  3247 ;;      Params:         0       0       0       0       0
  3248 ;;      Locals:         0       1       0       0       0
  3249 ;;      Temps:          0       0       0       0       0
  3250 ;;      Totals:         0       1       0       0       0
  3251 ;;Total ram usage:        1 bytes
  3252 ;; Hardware stack levels used:    1
  3253 ;; Hardware stack levels required when called:    2
  3254 ;; This function calls:
  3255 ;;		Nothing
  3256 ;; This function is called by:
  3257 ;;		_send_str
  3258 ;; This function uses a non-reentrant model
  3259 ;;
  3260                           
  3261                           
  3262                           ;psect for function _send_char
  3263  07F2                     _send_char:
  3264                           
  3265                           ;incstack = 0
  3266                           ; Regs used in _send_char: [wreg]
  3267                           ;send_char@dato stored from wreg
  3268  07F2  1283               	bcf	3,5	;RP0=0, select bank0
  3269  07F3  1303               	bcf	3,6	;RP1=0, select bank0
  3270  07F4  00A0               	movwf	send_char@dato
  3271  07F5                     l1442:
  3272  07F5                     l189:	
  3273                           ;Proyecto02.c: 474:     while(!TXIF);
  3274                           
  3275  07F5  1E0C               	btfss	12,4	;volatile
  3276  07F6  2FF8               	goto	u461
  3277  07F7  2FF9               	goto	u460
  3278  07F8                     u461:
  3279  07F8  2FF5               	goto	l189
  3280  07F9                     u460:
  3281  07F9                     l1444:
  3282                           
  3283                           ;Proyecto02.c: 475:     TXREG = dato;
  3284  07F9  0820               	movf	send_char@dato,w
  3285  07FA  0099               	movwf	25	;volatile
  3286  07FB                     l192:
  3287  07FB  0008               	return
  3288  07FC                     __end_of_send_char:
  3289                           
  3290                           	psect	text12
  3291  04FE                     __ptext12:	
  3292 ;; *************** function _isr *****************
  3293 ;; Defined at:
  3294 ;;		line 117 in file "Proyecto02.c"
  3295 ;; Parameters:    Size  Location     Type
  3296 ;;		None
  3297 ;; Auto vars:     Size  Location     Type
  3298 ;;		None
  3299 ;; Return value:  Size  Location     Type
  3300 ;;                  1    wreg      void 
  3301 ;; Registers used:
  3302 ;;		wreg, status,2, status,0, pclath, cstack
  3303 ;; Tracked objects:
  3304 ;;		On entry : 0/0
  3305 ;;		On exit  : 0/0
  3306 ;;		Unchanged: 0/0
  3307 ;; Data sizes:     COMMON   BANK0   BANK1   BANK3   BANK2
  3308 ;;      Params:         0       0       0       0       0
  3309 ;;      Locals:         0       0       0       0       0
  3310 ;;      Temps:          4       0       0       0       0
  3311 ;;      Totals:         4       0       0       0       0
  3312 ;;Total ram usage:        4 bytes
  3313 ;; Hardware stack levels used:    1
  3314 ;; Hardware stack levels required when called:    1
  3315 ;; This function calls:
  3316 ;;		i1_servo1Rotate0
  3317 ;;		i1_servo1Rotate90
  3318 ;;		i1_servo2Rotate0
  3319 ;;		i1_servo2Rotate90
  3320 ;;		i1_servo3Rotate0
  3321 ;;		i1_servo3Rotate90
  3322 ;;		i1_servo4Rotate0
  3323 ;;		i1_servo4Rotate90
  3324 ;; This function is called by:
  3325 ;;		Interrupt level 1
  3326 ;; This function uses a non-reentrant model
  3327 ;;
  3328                           
  3329                           
  3330                           ;psect for function _isr
  3331  04FE                     _isr:
  3332  04FE                     i1l1726:
  3333                           
  3334                           ;Proyecto02.c: 119:     if(PIR1bits.RCIF){
  3335  04FE  1283               	bcf	3,5	;RP0=0, select bank0
  3336  04FF  1303               	bcf	3,6	;RP1=0, select bank0
  3337  0500  1E8C               	btfss	12,5	;volatile
  3338  0501  2D03               	goto	u67_21
  3339  0502  2D04               	goto	u67_20
  3340  0503                     u67_21:
  3341  0503  2D0B               	goto	i1l1730
  3342  0504                     u67_20:
  3343  0504                     i1l1728:
  3344                           
  3345                           ;Proyecto02.c: 120:         op = RCREG;
  3346  0504  081A               	movf	26,w	;volatile
  3347  0505  00F4               	movwf	??_isr
  3348  0506  01F5               	clrf	??_isr+1
  3349  0507  0874               	movf	??_isr,w
  3350  0508  00AB               	movwf	_op
  3351  0509  0875               	movf	??_isr+1,w
  3352  050A  00AC               	movwf	_op+1
  3353  050B                     i1l1730:
  3354                           
  3355                           ;Proyecto02.c: 123:     if (RBIF == 1){
  3356  050B  1C0B               	btfss	11,0	;volatile
  3357  050C  2D0E               	goto	u68_21
  3358  050D  2D0F               	goto	u68_20
  3359  050E                     u68_21:
  3360  050E  2DEA               	goto	i1l1820
  3361  050F                     u68_20:
  3362  050F                     i1l1732:
  3363                           
  3364                           ;Proyecto02.c: 124:         if (PORTBbits.RB7 == 0){
  3365  050F  1B86               	btfsc	6,7	;volatile
  3366  0510  2D12               	goto	u69_21
  3367  0511  2D13               	goto	u69_20
  3368  0512                     u69_21:
  3369  0512  2D9B               	goto	i1l1786
  3370  0513                     u69_20:
  3371  0513                     i1l1734:
  3372                           
  3373                           ;Proyecto02.c: 125:             if (play==0){
  3374  0513  082D               	movf	_play,w
  3375  0514  042E               	iorwf	_play+1,w
  3376  0515  1D03               	btfss	3,2
  3377  0516  2D18               	goto	u70_21
  3378  0517  2D19               	goto	u70_20
  3379  0518                     u70_21:
  3380  0518  2D92               	goto	i1l1780
  3381  0519                     u70_20:
  3382  0519                     i1l1736:
  3383                           
  3384                           ;Proyecto02.c: 126:                 play++;
  3385  0519  3001               	movlw	1
  3386  051A  07AD               	addwf	_play,f
  3387  051B  1803               	skipnc
  3388  051C  0AAE               	incf	_play+1,f
  3389  051D  3000               	movlw	0
  3390  051E  07AE               	addwf	_play+1,f
  3391  051F                     i1l1738:
  3392                           
  3393                           ;Proyecto02.c: 127:                 rec=0;
  3394  051F  01F8               	clrf	_rec
  3395  0520  01F9               	clrf	_rec+1
  3396  0521                     i1l1740:
  3397                           
  3398                           ;Proyecto02.c: 128:                 PORTDbits.RD2 = 1;
  3399  0521  1508               	bsf	8,2	;volatile
  3400  0522                     i1l1742:
  3401                           
  3402                           ;Proyecto02.c: 129:                 PORTDbits.RD3 = 0;
  3403  0522  1188               	bcf	8,3	;volatile
  3404  0523                     i1l1744:
  3405                           
  3406                           ;Proyecto02.c: 131:                 if (ADRESH <128)
  3407  0523  3080               	movlw	128
  3408  0524  021E               	subwf	30,w	;volatile
  3409  0525  1803               	skipnc
  3410  0526  2D28               	goto	u71_21
  3411  0527  2D29               	goto	u71_20
  3412  0528                     u71_21:
  3413  0528  2D2F               	goto	i1l1748
  3414  0529                     u71_20:
  3415  0529                     i1l1746:
  3416                           
  3417                           ;Proyecto02.c: 132:                     servo3Rotate0();
  3418  0529  120A  158A  26D9  120A  118A  	fcall	i1_servo3Rotate0
  3419  052E  2D34               	goto	i1l1750
  3420  052F                     i1l1748:
  3421                           
  3422                           ;Proyecto02.c: 134:                     servo3Rotate90();
  3423  052F  120A  158A  277F  120A  118A  	fcall	i1_servo3Rotate90
  3424  0534                     i1l1750:
  3425                           
  3426                           ;Proyecto02.c: 135:                 _delay((unsigned long)((30)*(8000000/4000.0)));
  3427  0534  304E               	movlw	78
  3428  0535  00F5               	movwf	??_isr+1
  3429  0536  30EB               	movlw	235
  3430  0537  00F4               	movwf	??_isr
  3431  0538                     u113_27:
  3432  0538  0BF4               	decfsz	??_isr,f
  3433  0539  2D38               	goto	u113_27
  3434  053A  0BF5               	decfsz	??_isr+1,f
  3435  053B  2D38               	goto	u113_27
  3436  053C                     i1l1752:
  3437                           
  3438                           ;Proyecto02.c: 137:                 ADRESH = adc2;
  3439  053C  087C               	movf	_adc2,w
  3440  053D  1283               	bcf	3,5	;RP0=0, select bank0
  3441  053E  1303               	bcf	3,6	;RP1=0, select bank0
  3442  053F  009E               	movwf	30	;volatile
  3443  0540                     i1l1754:
  3444                           
  3445                           ;Proyecto02.c: 138:                 if (ADRESH <128)
  3446  0540  3080               	movlw	128
  3447  0541  021E               	subwf	30,w	;volatile
  3448  0542  1803               	skipnc
  3449  0543  2D45               	goto	u72_21
  3450  0544  2D46               	goto	u72_20
  3451  0545                     u72_21:
  3452  0545  2D4C               	goto	i1l1758
  3453  0546                     u72_20:
  3454  0546                     i1l1756:
  3455                           
  3456                           ;Proyecto02.c: 139:                     servo4Rotate0();
  3457  0546  120A  158A  2702  120A  118A  	fcall	i1_servo4Rotate0
  3458  054B  2D51               	goto	i1l1760
  3459  054C                     i1l1758:
  3460                           
  3461                           ;Proyecto02.c: 141:                     servo4Rotate90();
  3462  054C  120A  158A  27A9  120A  118A  	fcall	i1_servo4Rotate90
  3463  0551                     i1l1760:
  3464                           
  3465                           ;Proyecto02.c: 142:                 _delay((unsigned long)((30)*(8000000/4000.0)));
  3466  0551  304E               	movlw	78
  3467  0552  00F5               	movwf	??_isr+1
  3468  0553  30EB               	movlw	235
  3469  0554  00F4               	movwf	??_isr
  3470  0555                     u114_27:
  3471  0555  0BF4               	decfsz	??_isr,f
  3472  0556  2D55               	goto	u114_27
  3473  0557  0BF5               	decfsz	??_isr+1,f
  3474  0558  2D55               	goto	u114_27
  3475  0559                     i1l1762:
  3476                           
  3477                           ;Proyecto02.c: 144:                 ADRESH = adc3;
  3478  0559  087B               	movf	_adc3,w
  3479  055A  1283               	bcf	3,5	;RP0=0, select bank0
  3480  055B  1303               	bcf	3,6	;RP1=0, select bank0
  3481  055C  009E               	movwf	30	;volatile
  3482  055D                     i1l1764:
  3483                           
  3484                           ;Proyecto02.c: 145:                 if (ADRESH <128)
  3485  055D  3080               	movlw	128
  3486  055E  021E               	subwf	30,w	;volatile
  3487  055F  1803               	skipnc
  3488  0560  2D62               	goto	u73_21
  3489  0561  2D63               	goto	u73_20
  3490  0562                     u73_21:
  3491  0562  2D69               	goto	i1l1768
  3492  0563                     u73_20:
  3493  0563                     i1l1766:
  3494                           
  3495                           ;Proyecto02.c: 146:                     servo1Rotate0();
  3496  0563  120A  158A  2687  120A  118A  	fcall	i1_servo1Rotate0
  3497  0568  2D6E               	goto	i1l1770
  3498  0569                     i1l1768:
  3499                           
  3500                           ;Proyecto02.c: 148:                     servo1Rotate90();
  3501  0569  120A  158A  272B  120A  118A  	fcall	i1_servo1Rotate90
  3502  056E                     i1l1770:
  3503                           
  3504                           ;Proyecto02.c: 149:                 _delay((unsigned long)((30)*(8000000/4000.0)));
  3505  056E  304E               	movlw	78
  3506  056F  00F5               	movwf	??_isr+1
  3507  0570  30EB               	movlw	235
  3508  0571  00F4               	movwf	??_isr
  3509  0572                     u115_27:
  3510  0572  0BF4               	decfsz	??_isr,f
  3511  0573  2D72               	goto	u115_27
  3512  0574  0BF5               	decfsz	??_isr+1,f
  3513  0575  2D72               	goto	u115_27
  3514  0576                     i1l1772:
  3515                           
  3516                           ;Proyecto02.c: 151:                 if (ADRESH <128)
  3517  0576  3080               	movlw	128
  3518  0577  1283               	bcf	3,5	;RP0=0, select bank0
  3519  0578  1303               	bcf	3,6	;RP1=0, select bank0
  3520  0579  021E               	subwf	30,w	;volatile
  3521  057A  1803               	skipnc
  3522  057B  2D7D               	goto	u74_21
  3523  057C  2D7E               	goto	u74_20
  3524  057D                     u74_21:
  3525  057D  2D84               	goto	i1l1776
  3526  057E                     u74_20:
  3527  057E                     i1l1774:
  3528                           
  3529                           ;Proyecto02.c: 152:                     servo2Rotate0();
  3530  057E  120A  158A  26B0  120A  118A  	fcall	i1_servo2Rotate0
  3531  0583  2D89               	goto	i1l1778
  3532  0584                     i1l1776:
  3533                           
  3534                           ;Proyecto02.c: 154:                     servo2Rotate90();
  3535  0584  120A  158A  2755  120A  118A  	fcall	i1_servo2Rotate90
  3536  0589                     i1l1778:
  3537                           
  3538                           ;Proyecto02.c: 155:                 _delay((unsigned long)((30)*(8000000/4000.0)));
  3539  0589  304E               	movlw	78
  3540  058A  00F5               	movwf	??_isr+1
  3541  058B  30EB               	movlw	235
  3542  058C  00F4               	movwf	??_isr
  3543  058D                     u116_27:
  3544  058D  0BF4               	decfsz	??_isr,f
  3545  058E  2D8D               	goto	u116_27
  3546  058F  0BF5               	decfsz	??_isr+1,f
  3547  0590  2D8D               	goto	u116_27
  3548                           
  3549                           ;Proyecto02.c: 156:             }
  3550  0591  2D9B               	goto	i1l1786
  3551  0592                     i1l1780:
  3552  0592  032D               	decf	_play,w
  3553  0593  042E               	iorwf	_play+1,w
  3554  0594  1D03               	btfss	3,2
  3555  0595  2D97               	goto	u75_21
  3556  0596  2D98               	goto	u75_20
  3557  0597                     u75_21:
  3558  0597  2D9B               	goto	i1l1786
  3559  0598                     u75_20:
  3560  0598                     i1l1782:
  3561                           
  3562                           ;Proyecto02.c: 158:                 play = 0;
  3563  0598  01AD               	clrf	_play
  3564  0599  01AE               	clrf	_play+1
  3565  059A                     i1l1784:
  3566                           
  3567                           ;Proyecto02.c: 159:                 PORTDbits.RD2 = 0;
  3568  059A  1108               	bcf	8,2	;volatile
  3569  059B                     i1l1786:
  3570                           
  3571                           ;Proyecto02.c: 163:         if (PORTBbits.RB6 == 0){
  3572  059B  1283               	bcf	3,5	;RP0=0, select bank0
  3573  059C  1303               	bcf	3,6	;RP1=0, select bank0
  3574  059D  1B06               	btfsc	6,6	;volatile
  3575  059E  2DA0               	goto	u76_21
  3576  059F  2DA1               	goto	u76_20
  3577  05A0                     u76_21:
  3578  05A0  2DEA               	goto	i1l1820
  3579  05A1                     u76_20:
  3580  05A1                     i1l1788:
  3581                           
  3582                           ;Proyecto02.c: 164:             if (rec==0){
  3583  05A1  0878               	movf	_rec,w
  3584  05A2  0479               	iorwf	_rec+1,w
  3585  05A3  1D03               	btfss	3,2
  3586  05A4  2DA6               	goto	u77_21
  3587  05A5  2DA7               	goto	u77_20
  3588  05A6                     u77_21:
  3589  05A6  2DE0               	goto	i1l1814
  3590  05A7                     u77_20:
  3591  05A7                     i1l1790:
  3592                           
  3593                           ;Proyecto02.c: 165:                 play = 0;
  3594  05A7  01AD               	clrf	_play
  3595  05A8  01AE               	clrf	_play+1
  3596  05A9                     i1l1792:
  3597                           
  3598                           ;Proyecto02.c: 166:                 rec++;
  3599  05A9  3001               	movlw	1
  3600  05AA  07F8               	addwf	_rec,f
  3601  05AB  1803               	skipnc
  3602  05AC  0AF9               	incf	_rec+1,f
  3603  05AD  3000               	movlw	0
  3604  05AE  07F9               	addwf	_rec+1,f
  3605  05AF                     i1l1794:
  3606                           
  3607                           ;Proyecto02.c: 167:                 PORTDbits.RD2 = 0;
  3608  05AF  1108               	bcf	8,2	;volatile
  3609  05B0                     i1l1796:
  3610                           
  3611                           ;Proyecto02.c: 168:                 PORTDbits.RD3 = 1;
  3612  05B0  1588               	bsf	8,3	;volatile
  3613  05B1                     i1l1798:
  3614                           
  3615                           ;Proyecto02.c: 171:                ADRESH = adc1;
  3616  05B1  087D               	movf	_adc1,w
  3617  05B2  009E               	movwf	30	;volatile
  3618  05B3                     i1l1800:
  3619                           
  3620                           ;Proyecto02.c: 172:                 _delay((unsigned long)((30)*(8000000/4000.0)));
  3621  05B3  304E               	movlw	78
  3622  05B4  00F5               	movwf	??_isr+1
  3623  05B5  30EB               	movlw	235
  3624  05B6  00F4               	movwf	??_isr
  3625  05B7                     u117_27:
  3626  05B7  0BF4               	decfsz	??_isr,f
  3627  05B8  2DB7               	goto	u117_27
  3628  05B9  0BF5               	decfsz	??_isr+1,f
  3629  05BA  2DB7               	goto	u117_27
  3630  05BB                     i1l1802:
  3631                           
  3632                           ;Proyecto02.c: 173:                 ADRESH = adc2;
  3633  05BB  087C               	movf	_adc2,w
  3634  05BC  1283               	bcf	3,5	;RP0=0, select bank0
  3635  05BD  1303               	bcf	3,6	;RP1=0, select bank0
  3636  05BE  009E               	movwf	30	;volatile
  3637  05BF                     i1l1804:
  3638                           
  3639                           ;Proyecto02.c: 174:                  _delay((unsigned long)((30)*(8000000/4000.0)));
  3640  05BF  304E               	movlw	78
  3641  05C0  00F5               	movwf	??_isr+1
  3642  05C1  30EB               	movlw	235
  3643  05C2  00F4               	movwf	??_isr
  3644  05C3                     u118_27:
  3645  05C3  0BF4               	decfsz	??_isr,f
  3646  05C4  2DC3               	goto	u118_27
  3647  05C5  0BF5               	decfsz	??_isr+1,f
  3648  05C6  2DC3               	goto	u118_27
  3649  05C7                     i1l1806:
  3650                           
  3651                           ;Proyecto02.c: 175:                  ADRESH = adc3;
  3652  05C7  087B               	movf	_adc3,w
  3653  05C8  1283               	bcf	3,5	;RP0=0, select bank0
  3654  05C9  1303               	bcf	3,6	;RP1=0, select bank0
  3655  05CA  009E               	movwf	30	;volatile
  3656  05CB                     i1l1808:
  3657                           
  3658                           ;Proyecto02.c: 176:                 _delay((unsigned long)((30)*(8000000/4000.0)));
  3659  05CB  304E               	movlw	78
  3660  05CC  00F5               	movwf	??_isr+1
  3661  05CD  30EB               	movlw	235
  3662  05CE  00F4               	movwf	??_isr
  3663  05CF                     u119_27:
  3664  05CF  0BF4               	decfsz	??_isr,f
  3665  05D0  2DCF               	goto	u119_27
  3666  05D1  0BF5               	decfsz	??_isr+1,f
  3667  05D2  2DCF               	goto	u119_27
  3668  05D3                     i1l1810:
  3669                           
  3670                           ;Proyecto02.c: 177:                 ADRESH = adc4;
  3671  05D3  087A               	movf	_adc4,w
  3672  05D4  1283               	bcf	3,5	;RP0=0, select bank0
  3673  05D5  1303               	bcf	3,6	;RP1=0, select bank0
  3674  05D6  009E               	movwf	30	;volatile
  3675  05D7                     i1l1812:
  3676                           
  3677                           ;Proyecto02.c: 178:                  _delay((unsigned long)((30)*(8000000/4000.0)));
  3678  05D7  304E               	movlw	78
  3679  05D8  00F5               	movwf	??_isr+1
  3680  05D9  30EB               	movlw	235
  3681  05DA  00F4               	movwf	??_isr
  3682  05DB                     u120_27:
  3683  05DB  0BF4               	decfsz	??_isr,f
  3684  05DC  2DDB               	goto	u120_27
  3685  05DD  0BF5               	decfsz	??_isr+1,f
  3686  05DE  2DDB               	goto	u120_27
  3687                           
  3688                           ;Proyecto02.c: 180:             }
  3689  05DF  2DEA               	goto	i1l1820
  3690  05E0                     i1l1814:
  3691  05E0  0378               	decf	_rec,w
  3692  05E1  0479               	iorwf	_rec+1,w
  3693  05E2  1D03               	btfss	3,2
  3694  05E3  2DE5               	goto	u78_21
  3695  05E4  2DE6               	goto	u78_20
  3696  05E5                     u78_21:
  3697  05E5  2DEA               	goto	i1l141
  3698  05E6                     u78_20:
  3699  05E6                     i1l1816:
  3700                           
  3701                           ;Proyecto02.c: 182:                 rec = 0;
  3702  05E6  01F8               	clrf	_rec
  3703  05E7  01F9               	clrf	_rec+1
  3704  05E8                     i1l1818:
  3705                           
  3706                           ;Proyecto02.c: 183:                 PORTDbits.RD3 = 0;
  3707  05E8  1188               	bcf	8,3	;volatile
  3708  05E9  2DEA               	goto	i1l1820
  3709  05EA                     i1l141:	
  3710                           ;Proyecto02.c: 185:         }
  3711                           
  3712  05EA                     i1l1820:
  3713                           
  3714                           ;Proyecto02.c: 189:  if(PIR1bits.ADIF == 1){
  3715  05EA  1283               	bcf	3,5	;RP0=0, select bank0
  3716  05EB  1303               	bcf	3,6	;RP1=0, select bank0
  3717  05EC  1F0C               	btfss	12,6	;volatile
  3718  05ED  2DEF               	goto	u79_21
  3719  05EE  2DF0               	goto	u79_20
  3720  05EF                     u79_21:
  3721  05EF  2E4C               	goto	i1l149
  3722  05F0                     u79_20:
  3723  05F0                     i1l1822:
  3724                           
  3725                           ;Proyecto02.c: 191:         PIR1bits.ADIF = 0;
  3726  05F0  130C               	bcf	12,6	;volatile
  3727  05F1                     i1l1824:
  3728                           
  3729                           ;Proyecto02.c: 193:         if(ADCON0bits.CHS == 0){
  3730  05F1  0C1F               	rrf	31,w	;volatile
  3731  05F2  00F4               	movwf	??_isr
  3732  05F3  0C74               	rrf	??_isr,w
  3733  05F4  390F               	andlw	15
  3734  05F5  3A00               	xorlw	0
  3735  05F6  1D03               	skipz
  3736  05F7  2DF9               	goto	u80_21
  3737  05F8  2DFA               	goto	u80_20
  3738  05F9                     u80_21:
  3739  05F9  2E1F               	goto	i1l1828
  3740  05FA                     u80_20:
  3741  05FA                     i1l1826:
  3742                           
  3743                           ;Proyecto02.c: 194:             CCPR1L = (ADRESH >> 1) + 60;
  3744  05FA  081E               	movf	30,w	;volatile
  3745  05FB  00F4               	movwf	??_isr
  3746  05FC  1003               	clrc
  3747  05FD  0C74               	rrf	??_isr,w
  3748  05FE  3E3C               	addlw	60
  3749  05FF  0095               	movwf	21	;volatile
  3750                           
  3751                           ;Proyecto02.c: 195:             CCP1CONbits.DC1B1 = ADRESH & 0b01;
  3752  0600  081E               	movf	30,w	;volatile
  3753  0601  3901               	andlw	1
  3754  0602  00F4               	movwf	??_isr
  3755  0603  0EF4               	swapf	??_isr,f
  3756  0604  0DF4               	rlf	??_isr,f
  3757  0605  0817               	movf	23,w	;volatile
  3758  0606  0674               	xorwf	??_isr,w
  3759  0607  39DF               	andlw	-33
  3760  0608  0674               	xorwf	??_isr,w
  3761  0609  0097               	movwf	23	;volatile
  3762                           
  3763                           ;Proyecto02.c: 196:             CCP1CONbits.DC1B0 = (ADRESL>>7);
  3764  060A  1683               	bsf	3,5	;RP0=1, select bank1
  3765  060B  1303               	bcf	3,6	;RP1=0, select bank1
  3766  060C  081E               	movf	30,w	;volatile
  3767  060D  00F4               	movwf	??_isr
  3768  060E  3007               	movlw	7
  3769  060F                     u81_25:
  3770  060F  1003               	clrc
  3771  0610  0CF4               	rrf	??_isr,f
  3772  0611  3EFF               	addlw	-1
  3773  0612  1D03               	skipz
  3774  0613  2E0F               	goto	u81_25
  3775  0614  0874               	movf	??_isr,w
  3776  0615  00F5               	movwf	??_isr+1
  3777  0616  0EF5               	swapf	??_isr+1,f
  3778  0617  1283               	bcf	3,5	;RP0=0, select bank0
  3779  0618  1303               	bcf	3,6	;RP1=0, select bank0
  3780  0619  0817               	movf	23,w	;volatile
  3781  061A  0675               	xorwf	??_isr+1,w
  3782  061B  39EF               	andlw	-17
  3783  061C  0675               	xorwf	??_isr+1,w
  3784  061D  0097               	movwf	23	;volatile
  3785                           
  3786                           ;Proyecto02.c: 197:         }
  3787  061E  2E4C               	goto	i1l149
  3788  061F                     i1l1828:
  3789  061F  0C1F               	rrf	31,w	;volatile
  3790  0620  00F4               	movwf	??_isr
  3791  0621  0C74               	rrf	??_isr,w
  3792  0622  390F               	andlw	15
  3793  0623  3A01               	xorlw	1
  3794  0624  1D03               	skipz
  3795  0625  2E27               	goto	u82_21
  3796  0626  2E28               	goto	u82_20
  3797  0627                     u82_21:
  3798  0627  2E4C               	goto	i1l149
  3799  0628                     u82_20:
  3800  0628                     i1l1830:
  3801                           
  3802                           ;Proyecto02.c: 199:             CCPR2L = (ADRESH >> 1) + 60;
  3803  0628  081E               	movf	30,w	;volatile
  3804  0629  00F4               	movwf	??_isr
  3805  062A  1003               	clrc
  3806  062B  0C74               	rrf	??_isr,w
  3807  062C  3E3C               	addlw	60
  3808  062D  009B               	movwf	27	;volatile
  3809                           
  3810                           ;Proyecto02.c: 200:             CCP2CONbits.DC2B1 = ADRESH & 0b01;
  3811  062E  081E               	movf	30,w	;volatile
  3812  062F  3901               	andlw	1
  3813  0630  00F4               	movwf	??_isr
  3814  0631  0EF4               	swapf	??_isr,f
  3815  0632  0DF4               	rlf	??_isr,f
  3816  0633  081D               	movf	29,w	;volatile
  3817  0634  0674               	xorwf	??_isr,w
  3818  0635  39DF               	andlw	-33
  3819  0636  0674               	xorwf	??_isr,w
  3820  0637  009D               	movwf	29	;volatile
  3821                           
  3822                           ;Proyecto02.c: 201:             CCP2CONbits.DC2B0 = (ADRESL>>7);
  3823  0638  1683               	bsf	3,5	;RP0=1, select bank1
  3824  0639  1303               	bcf	3,6	;RP1=0, select bank1
  3825  063A  081E               	movf	30,w	;volatile
  3826  063B  00F4               	movwf	??_isr
  3827  063C  3007               	movlw	7
  3828  063D                     u83_25:
  3829  063D  1003               	clrc
  3830  063E  0CF4               	rrf	??_isr,f
  3831  063F  3EFF               	addlw	-1
  3832  0640  1D03               	skipz
  3833  0641  2E3D               	goto	u83_25
  3834  0642  0874               	movf	??_isr,w
  3835  0643  00F5               	movwf	??_isr+1
  3836  0644  0EF5               	swapf	??_isr+1,f
  3837  0645  1283               	bcf	3,5	;RP0=0, select bank0
  3838  0646  1303               	bcf	3,6	;RP1=0, select bank0
  3839  0647  081D               	movf	29,w	;volatile
  3840  0648  0675               	xorwf	??_isr+1,w
  3841  0649  39EF               	andlw	-17
  3842  064A  0675               	xorwf	??_isr+1,w
  3843  064B  009D               	movwf	29	;volatile
  3844  064C                     i1l149:
  3845  064C  0877               	movf	??_isr+3,w
  3846  064D  008A               	movwf	10
  3847  064E  0E76               	swapf	??_isr+2,w
  3848  064F  0083               	movwf	3
  3849  0650  0EFE               	swapf	btemp,f
  3850  0651  0E7E               	swapf	btemp,w
  3851  0652  0009               	retfie
  3852  0653                     __end_of_isr:
  3853                           
  3854                           	psect	intentry
  3855  0004                     __pintentry:	
  3856                           ;incstack = 0
  3857                           ; Regs used in _isr: [wreg+status,2+status,0+pclath+cstack]
  3858                           
  3859  0004                     interrupt_function:
  3860  007E                     saved_w	set	btemp
  3861  0004  00FE               	movwf	btemp
  3862  0005  0E03               	swapf	3,w
  3863  0006  00F6               	movwf	??_isr+2
  3864  0007  080A               	movf	10,w
  3865  0008  00F7               	movwf	??_isr+3
  3866  0009  120A  118A  2CFE   	ljmp	_isr
  3867                           
  3868                           	psect	text13
  3869  0FA9                     __ptext13:	
  3870 ;; *************** function i1_servo4Rotate90 *****************
  3871 ;; Defined at:
  3872 ;;		line 588 in file "Proyecto02.c"
  3873 ;; Parameters:    Size  Location     Type
  3874 ;;		None
  3875 ;; Auto vars:     Size  Location     Type
  3876 ;;  i               2    2[COMMON] unsigned int 
  3877 ;; Return value:  Size  Location     Type
  3878 ;;                  1    wreg      void 
  3879 ;; Registers used:
  3880 ;;		wreg, status,2
  3881 ;; Tracked objects:
  3882 ;;		On entry : 0/0
  3883 ;;		On exit  : 0/0
  3884 ;;		Unchanged: 0/0
  3885 ;; Data sizes:     COMMON   BANK0   BANK1   BANK3   BANK2
  3886 ;;      Params:         0       0       0       0       0
  3887 ;;      Locals:         2       0       0       0       0
  3888 ;;      Temps:          2       0       0       0       0
  3889 ;;      Totals:         4       0       0       0       0
  3890 ;;Total ram usage:        4 bytes
  3891 ;; Hardware stack levels used:    1
  3892 ;; This function calls:
  3893 ;;		Nothing
  3894 ;; This function is called by:
  3895 ;;		_isr
  3896 ;; This function uses a non-reentrant model
  3897 ;;
  3898                           
  3899                           
  3900                           ;psect for function i1_servo4Rotate90
  3901  0FA9                     i1_servo4Rotate90:
  3902  0FA9                     i1l1716:	
  3903                           ;incstack = 0
  3904                           ; Regs used in i1_servo4Rotate90: [wreg+status,2]
  3905                           
  3906                           
  3907                           ;Proyecto02.c: 589:   unsigned int i;;Proyecto02.c: 590:   for (i = 0; i <50; i ++){
  3908  0FA9  01F2               	clrf	i1servo4Rotate90@i
  3909  0FAA  01F3               	clrf	i1servo4Rotate90@i+1
  3910  0FAB                     i1l236:
  3911                           
  3912                           ;Proyecto02.c: 591:     PORTCbits.RC1 = 1;
  3913  0FAB  1283               	bcf	3,5	;RP0=0, select bank0
  3914  0FAC  1303               	bcf	3,6	;RP1=0, select bank0
  3915  0FAD  1487               	bsf	7,1	;volatile
  3916  0FAE                     i1l1722:
  3917                           
  3918                           ;Proyecto02.c: 592:     _delay((unsigned long)((1500)*(8000000/4000000.0)));
  3919  0FAE  3004               	movlw	4
  3920  0FAF  00F1               	movwf	??i1_servo4Rotate90+1
  3921  0FB0  30E4               	movlw	228
  3922  0FB1  00F0               	movwf	??i1_servo4Rotate90
  3923  0FB2                     u121_27:
  3924  0FB2  0BF0               	decfsz	??i1_servo4Rotate90,f
  3925  0FB3  2FB2               	goto	u121_27
  3926  0FB4  0BF1               	decfsz	??i1_servo4Rotate90+1,f
  3927  0FB5  2FB2               	goto	u121_27
  3928  0FB6  0000               	nop
  3929  0FB7                     i1l1724:
  3930                           
  3931                           ;Proyecto02.c: 593:     PORTCbits.RC1 = 0;
  3932  0FB7  1283               	bcf	3,5	;RP0=0, select bank0
  3933  0FB8  1303               	bcf	3,6	;RP1=0, select bank0
  3934  0FB9  1087               	bcf	7,1	;volatile
  3935                           
  3936                           ;Proyecto02.c: 594:     _delay((unsigned long)((18500)*(8000000/4000000.0)));
  3937  0FBA  3031               	movlw	49
  3938  0FBB  00F1               	movwf	??i1_servo4Rotate90+1
  3939  0FBC  300B               	movlw	11
  3940  0FBD  00F0               	movwf	??i1_servo4Rotate90
  3941  0FBE                     u122_27:
  3942  0FBE  0BF0               	decfsz	??i1_servo4Rotate90,f
  3943  0FBF  2FBE               	goto	u122_27
  3944  0FC0  0BF1               	decfsz	??i1_servo4Rotate90+1,f
  3945  0FC1  2FBE               	goto	u122_27
  3946  0FC2  2FC3               	nop2
  3947                           
  3948                           ;Proyecto02.c: 595:   }
  3949  0FC3  3001               	movlw	1
  3950  0FC4  07F2               	addwf	i1servo4Rotate90@i,f
  3951  0FC5  1803               	skipnc
  3952  0FC6  0AF3               	incf	i1servo4Rotate90@i+1,f
  3953  0FC7  3000               	movlw	0
  3954  0FC8  07F3               	addwf	i1servo4Rotate90@i+1,f
  3955  0FC9  3000               	movlw	0
  3956  0FCA  0273               	subwf	i1servo4Rotate90@i+1,w
  3957  0FCB  3032               	movlw	50
  3958  0FCC  1903               	skipnz
  3959  0FCD  0272               	subwf	i1servo4Rotate90@i,w
  3960  0FCE  1C03               	skipc
  3961  0FCF  2FD1               	goto	u66_21
  3962  0FD0  2FD2               	goto	u66_20
  3963  0FD1                     u66_21:
  3964  0FD1  2FAB               	goto	i1l236
  3965  0FD2                     u66_20:
  3966  0FD2                     i1l238:
  3967  0FD2  0008               	return
  3968  0FD3                     __end_ofi1_servo4Rotate90:
  3969                           
  3970                           	psect	text14
  3971  0F02                     __ptext14:	
  3972 ;; *************** function i1_servo4Rotate0 *****************
  3973 ;; Defined at:
  3974 ;;		line 578 in file "Proyecto02.c"
  3975 ;; Parameters:    Size  Location     Type
  3976 ;;		None
  3977 ;; Auto vars:     Size  Location     Type
  3978 ;;  i               2    2[COMMON] unsigned int 
  3979 ;; Return value:  Size  Location     Type
  3980 ;;                  1    wreg      void 
  3981 ;; Registers used:
  3982 ;;		wreg, status,2
  3983 ;; Tracked objects:
  3984 ;;		On entry : 0/0
  3985 ;;		On exit  : 0/0
  3986 ;;		Unchanged: 0/0
  3987 ;; Data sizes:     COMMON   BANK0   BANK1   BANK3   BANK2
  3988 ;;      Params:         0       0       0       0       0
  3989 ;;      Locals:         2       0       0       0       0
  3990 ;;      Temps:          2       0       0       0       0
  3991 ;;      Totals:         4       0       0       0       0
  3992 ;;Total ram usage:        4 bytes
  3993 ;; Hardware stack levels used:    1
  3994 ;; This function calls:
  3995 ;;		Nothing
  3996 ;; This function is called by:
  3997 ;;		_isr
  3998 ;; This function uses a non-reentrant model
  3999 ;;
  4000                           
  4001                           
  4002                           ;psect for function i1_servo4Rotate0
  4003  0F02                     i1_servo4Rotate0:
  4004  0F02                     i1l1706:	
  4005                           ;incstack = 0
  4006                           ; Regs used in i1_servo4Rotate0: [wreg+status,2]
  4007                           
  4008                           
  4009                           ;Proyecto02.c: 579:   unsigned int i;;Proyecto02.c: 580:   for (i = 0; i <50; i ++){
  4010  0F02  01F2               	clrf	i1servo4Rotate0@i
  4011  0F03  01F3               	clrf	i1servo4Rotate0@i+1
  4012  0F04                     i1l231:
  4013                           
  4014                           ;Proyecto02.c: 581:     PORTCbits.RC1 = 1;
  4015  0F04  1283               	bcf	3,5	;RP0=0, select bank0
  4016  0F05  1303               	bcf	3,6	;RP1=0, select bank0
  4017  0F06  1487               	bsf	7,1	;volatile
  4018  0F07                     i1l1712:
  4019                           
  4020                           ;Proyecto02.c: 582:     _delay((unsigned long)((800)*(8000000/4000000.0)));
  4021  0F07  30E4               	movlw	228
  4022  0F08  00F0               	movwf	??i1_servo4Rotate0
  4023  0F09                     u123_27:
  4024  0F09  2F0A               	nop2
  4025  0F0A  2F0B               	nop2
  4026  0F0B  0BF0               	decfsz	??i1_servo4Rotate0,f
  4027  0F0C  2F09               	goto	u123_27
  4028  0F0D  2F0E               	nop2
  4029  0F0E  0000               	nop
  4030  0F0F                     i1l1714:
  4031                           
  4032                           ;Proyecto02.c: 583:     PORTCbits.RC1 = 0;
  4033  0F0F  1283               	bcf	3,5	;RP0=0, select bank0
  4034  0F10  1303               	bcf	3,6	;RP1=0, select bank0
  4035  0F11  1087               	bcf	7,1	;volatile
  4036                           
  4037                           ;Proyecto02.c: 584:     _delay((unsigned long)((19200)*(8000000/4000000.0)));
  4038  0F12  3032               	movlw	50
  4039  0F13  00F1               	movwf	??i1_servo4Rotate0+1
  4040  0F14  30DD               	movlw	221
  4041  0F15  00F0               	movwf	??i1_servo4Rotate0
  4042  0F16                     u124_27:
  4043  0F16  0BF0               	decfsz	??i1_servo4Rotate0,f
  4044  0F17  2F16               	goto	u124_27
  4045  0F18  0BF1               	decfsz	??i1_servo4Rotate0+1,f
  4046  0F19  2F16               	goto	u124_27
  4047  0F1A  2F1B               	nop2
  4048                           
  4049                           ;Proyecto02.c: 585:   }
  4050  0F1B  3001               	movlw	1
  4051  0F1C  07F2               	addwf	i1servo4Rotate0@i,f
  4052  0F1D  1803               	skipnc
  4053  0F1E  0AF3               	incf	i1servo4Rotate0@i+1,f
  4054  0F1F  3000               	movlw	0
  4055  0F20  07F3               	addwf	i1servo4Rotate0@i+1,f
  4056  0F21  3000               	movlw	0
  4057  0F22  0273               	subwf	i1servo4Rotate0@i+1,w
  4058  0F23  3032               	movlw	50
  4059  0F24  1903               	skipnz
  4060  0F25  0272               	subwf	i1servo4Rotate0@i,w
  4061  0F26  1C03               	skipc
  4062  0F27  2F29               	goto	u65_21
  4063  0F28  2F2A               	goto	u65_20
  4064  0F29                     u65_21:
  4065  0F29  2F04               	goto	i1l231
  4066  0F2A                     u65_20:
  4067  0F2A                     i1l233:
  4068  0F2A  0008               	return
  4069  0F2B                     __end_ofi1_servo4Rotate0:
  4070                           
  4071                           	psect	text15
  4072  0F7F                     __ptext15:	
  4073 ;; *************** function i1_servo3Rotate90 *****************
  4074 ;; Defined at:
  4075 ;;		line 568 in file "Proyecto02.c"
  4076 ;; Parameters:    Size  Location     Type
  4077 ;;		None
  4078 ;; Auto vars:     Size  Location     Type
  4079 ;;  i               2    2[COMMON] unsigned int 
  4080 ;; Return value:  Size  Location     Type
  4081 ;;                  1    wreg      void 
  4082 ;; Registers used:
  4083 ;;		wreg, status,2
  4084 ;; Tracked objects:
  4085 ;;		On entry : 0/0
  4086 ;;		On exit  : 0/0
  4087 ;;		Unchanged: 0/0
  4088 ;; Data sizes:     COMMON   BANK0   BANK1   BANK3   BANK2
  4089 ;;      Params:         0       0       0       0       0
  4090 ;;      Locals:         2       0       0       0       0
  4091 ;;      Temps:          2       0       0       0       0
  4092 ;;      Totals:         4       0       0       0       0
  4093 ;;Total ram usage:        4 bytes
  4094 ;; Hardware stack levels used:    1
  4095 ;; This function calls:
  4096 ;;		Nothing
  4097 ;; This function is called by:
  4098 ;;		_isr
  4099 ;; This function uses a non-reentrant model
  4100 ;;
  4101                           
  4102                           
  4103                           ;psect for function i1_servo3Rotate90
  4104  0F7F                     i1_servo3Rotate90:
  4105  0F7F                     i1l1696:	
  4106                           ;incstack = 0
  4107                           ; Regs used in i1_servo3Rotate90: [wreg+status,2]
  4108                           
  4109                           
  4110                           ;Proyecto02.c: 569:   unsigned int i;;Proyecto02.c: 570:   for (i = 0; i <50; i ++){
  4111  0F7F  01F2               	clrf	i1servo3Rotate90@i
  4112  0F80  01F3               	clrf	i1servo3Rotate90@i+1
  4113  0F81                     i1l226:
  4114                           
  4115                           ;Proyecto02.c: 571:     PORTCbits.RC2 = 1;
  4116  0F81  1283               	bcf	3,5	;RP0=0, select bank0
  4117  0F82  1303               	bcf	3,6	;RP1=0, select bank0
  4118  0F83  1507               	bsf	7,2	;volatile
  4119  0F84                     i1l1702:
  4120                           
  4121                           ;Proyecto02.c: 572:     _delay((unsigned long)((1500)*(8000000/4000000.0)));
  4122  0F84  3004               	movlw	4
  4123  0F85  00F1               	movwf	??i1_servo3Rotate90+1
  4124  0F86  30E4               	movlw	228
  4125  0F87  00F0               	movwf	??i1_servo3Rotate90
  4126  0F88                     u125_27:
  4127  0F88  0BF0               	decfsz	??i1_servo3Rotate90,f
  4128  0F89  2F88               	goto	u125_27
  4129  0F8A  0BF1               	decfsz	??i1_servo3Rotate90+1,f
  4130  0F8B  2F88               	goto	u125_27
  4131  0F8C  0000               	nop
  4132  0F8D                     i1l1704:
  4133                           
  4134                           ;Proyecto02.c: 573:     PORTCbits.RC2 = 0;
  4135  0F8D  1283               	bcf	3,5	;RP0=0, select bank0
  4136  0F8E  1303               	bcf	3,6	;RP1=0, select bank0
  4137  0F8F  1107               	bcf	7,2	;volatile
  4138                           
  4139                           ;Proyecto02.c: 574:     _delay((unsigned long)((18500)*(8000000/4000000.0)));
  4140  0F90  3031               	movlw	49
  4141  0F91  00F1               	movwf	??i1_servo3Rotate90+1
  4142  0F92  300B               	movlw	11
  4143  0F93  00F0               	movwf	??i1_servo3Rotate90
  4144  0F94                     u126_27:
  4145  0F94  0BF0               	decfsz	??i1_servo3Rotate90,f
  4146  0F95  2F94               	goto	u126_27
  4147  0F96  0BF1               	decfsz	??i1_servo3Rotate90+1,f
  4148  0F97  2F94               	goto	u126_27
  4149  0F98  2F99               	nop2
  4150                           
  4151                           ;Proyecto02.c: 575:   }
  4152  0F99  3001               	movlw	1
  4153  0F9A  07F2               	addwf	i1servo3Rotate90@i,f
  4154  0F9B  1803               	skipnc
  4155  0F9C  0AF3               	incf	i1servo3Rotate90@i+1,f
  4156  0F9D  3000               	movlw	0
  4157  0F9E  07F3               	addwf	i1servo3Rotate90@i+1,f
  4158  0F9F  3000               	movlw	0
  4159  0FA0  0273               	subwf	i1servo3Rotate90@i+1,w
  4160  0FA1  3032               	movlw	50
  4161  0FA2  1903               	skipnz
  4162  0FA3  0272               	subwf	i1servo3Rotate90@i,w
  4163  0FA4  1C03               	skipc
  4164  0FA5  2FA7               	goto	u64_21
  4165  0FA6  2FA8               	goto	u64_20
  4166  0FA7                     u64_21:
  4167  0FA7  2F81               	goto	i1l226
  4168  0FA8                     u64_20:
  4169  0FA8                     i1l228:
  4170  0FA8  0008               	return
  4171  0FA9                     __end_ofi1_servo3Rotate90:
  4172                           
  4173                           	psect	text16
  4174  0ED9                     __ptext16:	
  4175 ;; *************** function i1_servo3Rotate0 *****************
  4176 ;; Defined at:
  4177 ;;		line 558 in file "Proyecto02.c"
  4178 ;; Parameters:    Size  Location     Type
  4179 ;;		None
  4180 ;; Auto vars:     Size  Location     Type
  4181 ;;  i               2    2[COMMON] unsigned int 
  4182 ;; Return value:  Size  Location     Type
  4183 ;;                  1    wreg      void 
  4184 ;; Registers used:
  4185 ;;		wreg, status,2
  4186 ;; Tracked objects:
  4187 ;;		On entry : 0/0
  4188 ;;		On exit  : 0/0
  4189 ;;		Unchanged: 0/0
  4190 ;; Data sizes:     COMMON   BANK0   BANK1   BANK3   BANK2
  4191 ;;      Params:         0       0       0       0       0
  4192 ;;      Locals:         2       0       0       0       0
  4193 ;;      Temps:          2       0       0       0       0
  4194 ;;      Totals:         4       0       0       0       0
  4195 ;;Total ram usage:        4 bytes
  4196 ;; Hardware stack levels used:    1
  4197 ;; This function calls:
  4198 ;;		Nothing
  4199 ;; This function is called by:
  4200 ;;		_isr
  4201 ;; This function uses a non-reentrant model
  4202 ;;
  4203                           
  4204                           
  4205                           ;psect for function i1_servo3Rotate0
  4206  0ED9                     i1_servo3Rotate0:
  4207  0ED9                     i1l1686:	
  4208                           ;incstack = 0
  4209                           ; Regs used in i1_servo3Rotate0: [wreg+status,2]
  4210                           
  4211                           
  4212                           ;Proyecto02.c: 559:   unsigned int i;;Proyecto02.c: 560:   for (i = 0; i <50; i ++){
  4213  0ED9  01F2               	clrf	i1servo3Rotate0@i
  4214  0EDA  01F3               	clrf	i1servo3Rotate0@i+1
  4215  0EDB                     i1l221:
  4216                           
  4217                           ;Proyecto02.c: 561:     PORTCbits.RC2 = 1;
  4218  0EDB  1283               	bcf	3,5	;RP0=0, select bank0
  4219  0EDC  1303               	bcf	3,6	;RP1=0, select bank0
  4220  0EDD  1507               	bsf	7,2	;volatile
  4221  0EDE                     i1l1692:
  4222                           
  4223                           ;Proyecto02.c: 562:     _delay((unsigned long)((800)*(8000000/4000000.0)));
  4224  0EDE  30E4               	movlw	228
  4225  0EDF  00F0               	movwf	??i1_servo3Rotate0
  4226  0EE0                     u127_27:
  4227  0EE0  2EE1               	nop2
  4228  0EE1  2EE2               	nop2
  4229  0EE2  0BF0               	decfsz	??i1_servo3Rotate0,f
  4230  0EE3  2EE0               	goto	u127_27
  4231  0EE4  2EE5               	nop2
  4232  0EE5  0000               	nop
  4233  0EE6                     i1l1694:
  4234                           
  4235                           ;Proyecto02.c: 563:     PORTCbits.RC2 = 0;
  4236  0EE6  1283               	bcf	3,5	;RP0=0, select bank0
  4237  0EE7  1303               	bcf	3,6	;RP1=0, select bank0
  4238  0EE8  1107               	bcf	7,2	;volatile
  4239                           
  4240                           ;Proyecto02.c: 564:     _delay((unsigned long)((19200)*(8000000/4000000.0)));
  4241  0EE9  3032               	movlw	50
  4242  0EEA  00F1               	movwf	??i1_servo3Rotate0+1
  4243  0EEB  30DD               	movlw	221
  4244  0EEC  00F0               	movwf	??i1_servo3Rotate0
  4245  0EED                     u128_27:
  4246  0EED  0BF0               	decfsz	??i1_servo3Rotate0,f
  4247  0EEE  2EED               	goto	u128_27
  4248  0EEF  0BF1               	decfsz	??i1_servo3Rotate0+1,f
  4249  0EF0  2EED               	goto	u128_27
  4250  0EF1  2EF2               	nop2
  4251                           
  4252                           ;Proyecto02.c: 565:   }
  4253  0EF2  3001               	movlw	1
  4254  0EF3  07F2               	addwf	i1servo3Rotate0@i,f
  4255  0EF4  1803               	skipnc
  4256  0EF5  0AF3               	incf	i1servo3Rotate0@i+1,f
  4257  0EF6  3000               	movlw	0
  4258  0EF7  07F3               	addwf	i1servo3Rotate0@i+1,f
  4259  0EF8  3000               	movlw	0
  4260  0EF9  0273               	subwf	i1servo3Rotate0@i+1,w
  4261  0EFA  3032               	movlw	50
  4262  0EFB  1903               	skipnz
  4263  0EFC  0272               	subwf	i1servo3Rotate0@i,w
  4264  0EFD  1C03               	skipc
  4265  0EFE  2F00               	goto	u63_21
  4266  0EFF  2F01               	goto	u63_20
  4267  0F00                     u63_21:
  4268  0F00  2EDB               	goto	i1l221
  4269  0F01                     u63_20:
  4270  0F01                     i1l223:
  4271  0F01  0008               	return
  4272  0F02                     __end_ofi1_servo3Rotate0:
  4273                           
  4274                           	psect	text17
  4275  0F55                     __ptext17:	
  4276 ;; *************** function i1_servo2Rotate90 *****************
  4277 ;; Defined at:
  4278 ;;		line 548 in file "Proyecto02.c"
  4279 ;; Parameters:    Size  Location     Type
  4280 ;;		None
  4281 ;; Auto vars:     Size  Location     Type
  4282 ;;  i               2    2[COMMON] unsigned int 
  4283 ;; Return value:  Size  Location     Type
  4284 ;;                  1    wreg      void 
  4285 ;; Registers used:
  4286 ;;		wreg, status,2
  4287 ;; Tracked objects:
  4288 ;;		On entry : 0/0
  4289 ;;		On exit  : 0/0
  4290 ;;		Unchanged: 0/0
  4291 ;; Data sizes:     COMMON   BANK0   BANK1   BANK3   BANK2
  4292 ;;      Params:         0       0       0       0       0
  4293 ;;      Locals:         2       0       0       0       0
  4294 ;;      Temps:          2       0       0       0       0
  4295 ;;      Totals:         4       0       0       0       0
  4296 ;;Total ram usage:        4 bytes
  4297 ;; Hardware stack levels used:    1
  4298 ;; This function calls:
  4299 ;;		Nothing
  4300 ;; This function is called by:
  4301 ;;		_isr
  4302 ;; This function uses a non-reentrant model
  4303 ;;
  4304                           
  4305                           
  4306                           ;psect for function i1_servo2Rotate90
  4307  0F55                     i1_servo2Rotate90:
  4308  0F55                     i1l1676:	
  4309                           ;incstack = 0
  4310                           ; Regs used in i1_servo2Rotate90: [wreg+status,2]
  4311                           
  4312                           
  4313                           ;Proyecto02.c: 549:   unsigned int i;;Proyecto02.c: 550:   for (i = 0; i <50; i ++){
  4314  0F55  01F2               	clrf	i1servo2Rotate90@i
  4315  0F56  01F3               	clrf	i1servo2Rotate90@i+1
  4316  0F57                     i1l216:
  4317                           
  4318                           ;Proyecto02.c: 551:     PORTCbits.RC3 = 1;
  4319  0F57  1283               	bcf	3,5	;RP0=0, select bank0
  4320  0F58  1303               	bcf	3,6	;RP1=0, select bank0
  4321  0F59  1587               	bsf	7,3	;volatile
  4322  0F5A                     i1l1682:
  4323                           
  4324                           ;Proyecto02.c: 552:     _delay((unsigned long)((1500)*(8000000/4000000.0)));
  4325  0F5A  3004               	movlw	4
  4326  0F5B  00F1               	movwf	??i1_servo2Rotate90+1
  4327  0F5C  30E4               	movlw	228
  4328  0F5D  00F0               	movwf	??i1_servo2Rotate90
  4329  0F5E                     u129_27:
  4330  0F5E  0BF0               	decfsz	??i1_servo2Rotate90,f
  4331  0F5F  2F5E               	goto	u129_27
  4332  0F60  0BF1               	decfsz	??i1_servo2Rotate90+1,f
  4333  0F61  2F5E               	goto	u129_27
  4334  0F62  0000               	nop
  4335  0F63                     i1l1684:
  4336                           
  4337                           ;Proyecto02.c: 553:     PORTCbits.RC3 = 0;
  4338  0F63  1283               	bcf	3,5	;RP0=0, select bank0
  4339  0F64  1303               	bcf	3,6	;RP1=0, select bank0
  4340  0F65  1187               	bcf	7,3	;volatile
  4341                           
  4342                           ;Proyecto02.c: 554:     _delay((unsigned long)((18500)*(8000000/4000000.0)));
  4343  0F66  3031               	movlw	49
  4344  0F67  00F1               	movwf	??i1_servo2Rotate90+1
  4345  0F68  300B               	movlw	11
  4346  0F69  00F0               	movwf	??i1_servo2Rotate90
  4347  0F6A                     u130_27:
  4348  0F6A  0BF0               	decfsz	??i1_servo2Rotate90,f
  4349  0F6B  2F6A               	goto	u130_27
  4350  0F6C  0BF1               	decfsz	??i1_servo2Rotate90+1,f
  4351  0F6D  2F6A               	goto	u130_27
  4352  0F6E  2F6F               	nop2
  4353                           
  4354                           ;Proyecto02.c: 555:   }
  4355  0F6F  3001               	movlw	1
  4356  0F70  07F2               	addwf	i1servo2Rotate90@i,f
  4357  0F71  1803               	skipnc
  4358  0F72  0AF3               	incf	i1servo2Rotate90@i+1,f
  4359  0F73  3000               	movlw	0
  4360  0F74  07F3               	addwf	i1servo2Rotate90@i+1,f
  4361  0F75  3000               	movlw	0
  4362  0F76  0273               	subwf	i1servo2Rotate90@i+1,w
  4363  0F77  3032               	movlw	50
  4364  0F78  1903               	skipnz
  4365  0F79  0272               	subwf	i1servo2Rotate90@i,w
  4366  0F7A  1C03               	skipc
  4367  0F7B  2F7D               	goto	u62_21
  4368  0F7C  2F7E               	goto	u62_20
  4369  0F7D                     u62_21:
  4370  0F7D  2F57               	goto	i1l216
  4371  0F7E                     u62_20:
  4372  0F7E                     i1l218:
  4373  0F7E  0008               	return
  4374  0F7F                     __end_ofi1_servo2Rotate90:
  4375                           
  4376                           	psect	text18
  4377  0EB0                     __ptext18:	
  4378 ;; *************** function i1_servo2Rotate0 *****************
  4379 ;; Defined at:
  4380 ;;		line 538 in file "Proyecto02.c"
  4381 ;; Parameters:    Size  Location     Type
  4382 ;;		None
  4383 ;; Auto vars:     Size  Location     Type
  4384 ;;  i               2    2[COMMON] unsigned int 
  4385 ;; Return value:  Size  Location     Type
  4386 ;;                  1    wreg      void 
  4387 ;; Registers used:
  4388 ;;		wreg, status,2
  4389 ;; Tracked objects:
  4390 ;;		On entry : 0/0
  4391 ;;		On exit  : 0/0
  4392 ;;		Unchanged: 0/0
  4393 ;; Data sizes:     COMMON   BANK0   BANK1   BANK3   BANK2
  4394 ;;      Params:         0       0       0       0       0
  4395 ;;      Locals:         2       0       0       0       0
  4396 ;;      Temps:          2       0       0       0       0
  4397 ;;      Totals:         4       0       0       0       0
  4398 ;;Total ram usage:        4 bytes
  4399 ;; Hardware stack levels used:    1
  4400 ;; This function calls:
  4401 ;;		Nothing
  4402 ;; This function is called by:
  4403 ;;		_isr
  4404 ;; This function uses a non-reentrant model
  4405 ;;
  4406                           
  4407                           
  4408                           ;psect for function i1_servo2Rotate0
  4409  0EB0                     i1_servo2Rotate0:
  4410  0EB0                     i1l1666:	
  4411                           ;incstack = 0
  4412                           ; Regs used in i1_servo2Rotate0: [wreg+status,2]
  4413                           
  4414                           
  4415                           ;Proyecto02.c: 539:   unsigned int i;;Proyecto02.c: 540:   for (i = 0; i <50; i ++){
  4416  0EB0  01F2               	clrf	i1servo2Rotate0@i
  4417  0EB1  01F3               	clrf	i1servo2Rotate0@i+1
  4418  0EB2                     i1l211:
  4419                           
  4420                           ;Proyecto02.c: 541:     PORTCbits.RC3 = 1;
  4421  0EB2  1283               	bcf	3,5	;RP0=0, select bank0
  4422  0EB3  1303               	bcf	3,6	;RP1=0, select bank0
  4423  0EB4  1587               	bsf	7,3	;volatile
  4424  0EB5                     i1l1672:
  4425                           
  4426                           ;Proyecto02.c: 542:     _delay((unsigned long)((800)*(8000000/4000000.0)));
  4427  0EB5  30E4               	movlw	228
  4428  0EB6  00F0               	movwf	??i1_servo2Rotate0
  4429  0EB7                     u131_27:
  4430  0EB7  2EB8               	nop2
  4431  0EB8  2EB9               	nop2
  4432  0EB9  0BF0               	decfsz	??i1_servo2Rotate0,f
  4433  0EBA  2EB7               	goto	u131_27
  4434  0EBB  2EBC               	nop2
  4435  0EBC  0000               	nop
  4436  0EBD                     i1l1674:
  4437                           
  4438                           ;Proyecto02.c: 543:     PORTCbits.RC3 = 0;
  4439  0EBD  1283               	bcf	3,5	;RP0=0, select bank0
  4440  0EBE  1303               	bcf	3,6	;RP1=0, select bank0
  4441  0EBF  1187               	bcf	7,3	;volatile
  4442                           
  4443                           ;Proyecto02.c: 544:     _delay((unsigned long)((19200)*(8000000/4000000.0)));
  4444  0EC0  3032               	movlw	50
  4445  0EC1  00F1               	movwf	??i1_servo2Rotate0+1
  4446  0EC2  30DD               	movlw	221
  4447  0EC3  00F0               	movwf	??i1_servo2Rotate0
  4448  0EC4                     u132_27:
  4449  0EC4  0BF0               	decfsz	??i1_servo2Rotate0,f
  4450  0EC5  2EC4               	goto	u132_27
  4451  0EC6  0BF1               	decfsz	??i1_servo2Rotate0+1,f
  4452  0EC7  2EC4               	goto	u132_27
  4453  0EC8  2EC9               	nop2
  4454                           
  4455                           ;Proyecto02.c: 545:   }
  4456  0EC9  3001               	movlw	1
  4457  0ECA  07F2               	addwf	i1servo2Rotate0@i,f
  4458  0ECB  1803               	skipnc
  4459  0ECC  0AF3               	incf	i1servo2Rotate0@i+1,f
  4460  0ECD  3000               	movlw	0
  4461  0ECE  07F3               	addwf	i1servo2Rotate0@i+1,f
  4462  0ECF  3000               	movlw	0
  4463  0ED0  0273               	subwf	i1servo2Rotate0@i+1,w
  4464  0ED1  3032               	movlw	50
  4465  0ED2  1903               	skipnz
  4466  0ED3  0272               	subwf	i1servo2Rotate0@i,w
  4467  0ED4  1C03               	skipc
  4468  0ED5  2ED7               	goto	u61_21
  4469  0ED6  2ED8               	goto	u61_20
  4470  0ED7                     u61_21:
  4471  0ED7  2EB2               	goto	i1l211
  4472  0ED8                     u61_20:
  4473  0ED8                     i1l213:
  4474  0ED8  0008               	return
  4475  0ED9                     __end_ofi1_servo2Rotate0:
  4476                           
  4477                           	psect	text19
  4478  0F2B                     __ptext19:	
  4479 ;; *************** function i1_servo1Rotate90 *****************
  4480 ;; Defined at:
  4481 ;;		line 528 in file "Proyecto02.c"
  4482 ;; Parameters:    Size  Location     Type
  4483 ;;		None
  4484 ;; Auto vars:     Size  Location     Type
  4485 ;;  i               2    2[COMMON] unsigned int 
  4486 ;; Return value:  Size  Location     Type
  4487 ;;                  1    wreg      void 
  4488 ;; Registers used:
  4489 ;;		wreg, status,2
  4490 ;; Tracked objects:
  4491 ;;		On entry : 0/0
  4492 ;;		On exit  : 0/0
  4493 ;;		Unchanged: 0/0
  4494 ;; Data sizes:     COMMON   BANK0   BANK1   BANK3   BANK2
  4495 ;;      Params:         0       0       0       0       0
  4496 ;;      Locals:         2       0       0       0       0
  4497 ;;      Temps:          2       0       0       0       0
  4498 ;;      Totals:         4       0       0       0       0
  4499 ;;Total ram usage:        4 bytes
  4500 ;; Hardware stack levels used:    1
  4501 ;; This function calls:
  4502 ;;		Nothing
  4503 ;; This function is called by:
  4504 ;;		_isr
  4505 ;; This function uses a non-reentrant model
  4506 ;;
  4507                           
  4508                           
  4509                           ;psect for function i1_servo1Rotate90
  4510  0F2B                     i1_servo1Rotate90:
  4511  0F2B                     i1l1656:	
  4512                           ;incstack = 0
  4513                           ; Regs used in i1_servo1Rotate90: [wreg+status,2]
  4514                           
  4515                           
  4516                           ;Proyecto02.c: 529:   unsigned int i;;Proyecto02.c: 530:   for (i = 0; i <50; i ++){
  4517  0F2B  01F2               	clrf	i1servo1Rotate90@i
  4518  0F2C  01F3               	clrf	i1servo1Rotate90@i+1
  4519  0F2D                     i1l206:
  4520                           
  4521                           ;Proyecto02.c: 531:     PORTCbits.RC0 = 1;
  4522  0F2D  1283               	bcf	3,5	;RP0=0, select bank0
  4523  0F2E  1303               	bcf	3,6	;RP1=0, select bank0
  4524  0F2F  1407               	bsf	7,0	;volatile
  4525  0F30                     i1l1662:
  4526                           
  4527                           ;Proyecto02.c: 532:     _delay((unsigned long)((1500)*(8000000/4000000.0)));
  4528  0F30  3004               	movlw	4
  4529  0F31  00F1               	movwf	??i1_servo1Rotate90+1
  4530  0F32  30E4               	movlw	228
  4531  0F33  00F0               	movwf	??i1_servo1Rotate90
  4532  0F34                     u133_27:
  4533  0F34  0BF0               	decfsz	??i1_servo1Rotate90,f
  4534  0F35  2F34               	goto	u133_27
  4535  0F36  0BF1               	decfsz	??i1_servo1Rotate90+1,f
  4536  0F37  2F34               	goto	u133_27
  4537  0F38  0000               	nop
  4538  0F39                     i1l1664:
  4539                           
  4540                           ;Proyecto02.c: 533:     PORTCbits.RC0 = 0;
  4541  0F39  1283               	bcf	3,5	;RP0=0, select bank0
  4542  0F3A  1303               	bcf	3,6	;RP1=0, select bank0
  4543  0F3B  1007               	bcf	7,0	;volatile
  4544                           
  4545                           ;Proyecto02.c: 534:     _delay((unsigned long)((18500)*(8000000/4000000.0)));
  4546  0F3C  3031               	movlw	49
  4547  0F3D  00F1               	movwf	??i1_servo1Rotate90+1
  4548  0F3E  300B               	movlw	11
  4549  0F3F  00F0               	movwf	??i1_servo1Rotate90
  4550  0F40                     u134_27:
  4551  0F40  0BF0               	decfsz	??i1_servo1Rotate90,f
  4552  0F41  2F40               	goto	u134_27
  4553  0F42  0BF1               	decfsz	??i1_servo1Rotate90+1,f
  4554  0F43  2F40               	goto	u134_27
  4555  0F44  2F45               	nop2
  4556                           
  4557                           ;Proyecto02.c: 535:   }
  4558  0F45  3001               	movlw	1
  4559  0F46  07F2               	addwf	i1servo1Rotate90@i,f
  4560  0F47  1803               	skipnc
  4561  0F48  0AF3               	incf	i1servo1Rotate90@i+1,f
  4562  0F49  3000               	movlw	0
  4563  0F4A  07F3               	addwf	i1servo1Rotate90@i+1,f
  4564  0F4B  3000               	movlw	0
  4565  0F4C  0273               	subwf	i1servo1Rotate90@i+1,w
  4566  0F4D  3032               	movlw	50
  4567  0F4E  1903               	skipnz
  4568  0F4F  0272               	subwf	i1servo1Rotate90@i,w
  4569  0F50  1C03               	skipc
  4570  0F51  2F53               	goto	u60_21
  4571  0F52  2F54               	goto	u60_20
  4572  0F53                     u60_21:
  4573  0F53  2F2D               	goto	i1l206
  4574  0F54                     u60_20:
  4575  0F54                     i1l208:
  4576  0F54  0008               	return
  4577  0F55                     __end_ofi1_servo1Rotate90:
  4578                           
  4579                           	psect	text20
  4580  0E87                     __ptext20:	
  4581 ;; *************** function i1_servo1Rotate0 *****************
  4582 ;; Defined at:
  4583 ;;		line 518 in file "Proyecto02.c"
  4584 ;; Parameters:    Size  Location     Type
  4585 ;;		None
  4586 ;; Auto vars:     Size  Location     Type
  4587 ;;  i               2    2[COMMON] unsigned int 
  4588 ;; Return value:  Size  Location     Type
  4589 ;;                  1    wreg      void 
  4590 ;; Registers used:
  4591 ;;		wreg, status,2
  4592 ;; Tracked objects:
  4593 ;;		On entry : 0/0
  4594 ;;		On exit  : 0/0
  4595 ;;		Unchanged: 0/0
  4596 ;; Data sizes:     COMMON   BANK0   BANK1   BANK3   BANK2
  4597 ;;      Params:         0       0       0       0       0
  4598 ;;      Locals:         2       0       0       0       0
  4599 ;;      Temps:          2       0       0       0       0
  4600 ;;      Totals:         4       0       0       0       0
  4601 ;;Total ram usage:        4 bytes
  4602 ;; Hardware stack levels used:    1
  4603 ;; This function calls:
  4604 ;;		Nothing
  4605 ;; This function is called by:
  4606 ;;		_isr
  4607 ;; This function uses a non-reentrant model
  4608 ;;
  4609                           
  4610                           
  4611                           ;psect for function i1_servo1Rotate0
  4612  0E87                     i1_servo1Rotate0:
  4613  0E87                     i1l1646:	
  4614                           ;incstack = 0
  4615                           ; Regs used in i1_servo1Rotate0: [wreg+status,2]
  4616                           
  4617                           
  4618                           ;Proyecto02.c: 519:   unsigned int i;;Proyecto02.c: 520:   for (i = 0; i <50; i ++){
  4619  0E87  01F2               	clrf	i1servo1Rotate0@i
  4620  0E88  01F3               	clrf	i1servo1Rotate0@i+1
  4621  0E89                     i1l201:
  4622                           
  4623                           ;Proyecto02.c: 521:     PORTCbits.RC0 = 1;
  4624  0E89  1283               	bcf	3,5	;RP0=0, select bank0
  4625  0E8A  1303               	bcf	3,6	;RP1=0, select bank0
  4626  0E8B  1407               	bsf	7,0	;volatile
  4627  0E8C                     i1l1652:
  4628                           
  4629                           ;Proyecto02.c: 522:     _delay((unsigned long)((800)*(8000000/4000000.0)));
  4630  0E8C  30E4               	movlw	228
  4631  0E8D  00F0               	movwf	??i1_servo1Rotate0
  4632  0E8E                     u135_27:
  4633  0E8E  2E8F               	nop2
  4634  0E8F  2E90               	nop2
  4635  0E90  0BF0               	decfsz	??i1_servo1Rotate0,f
  4636  0E91  2E8E               	goto	u135_27
  4637  0E92  2E93               	nop2
  4638  0E93  0000               	nop
  4639  0E94                     i1l1654:
  4640                           
  4641                           ;Proyecto02.c: 523:     PORTCbits.RC0 = 0;
  4642  0E94  1283               	bcf	3,5	;RP0=0, select bank0
  4643  0E95  1303               	bcf	3,6	;RP1=0, select bank0
  4644  0E96  1007               	bcf	7,0	;volatile
  4645                           
  4646                           ;Proyecto02.c: 524:     _delay((unsigned long)((19200)*(8000000/4000000.0)));
  4647  0E97  3032               	movlw	50
  4648  0E98  00F1               	movwf	??i1_servo1Rotate0+1
  4649  0E99  30DD               	movlw	221
  4650  0E9A  00F0               	movwf	??i1_servo1Rotate0
  4651  0E9B                     u136_27:
  4652  0E9B  0BF0               	decfsz	??i1_servo1Rotate0,f
  4653  0E9C  2E9B               	goto	u136_27
  4654  0E9D  0BF1               	decfsz	??i1_servo1Rotate0+1,f
  4655  0E9E  2E9B               	goto	u136_27
  4656  0E9F  2EA0               	nop2
  4657                           
  4658                           ;Proyecto02.c: 525:   }
  4659  0EA0  3001               	movlw	1
  4660  0EA1  07F2               	addwf	i1servo1Rotate0@i,f
  4661  0EA2  1803               	skipnc
  4662  0EA3  0AF3               	incf	i1servo1Rotate0@i+1,f
  4663  0EA4  3000               	movlw	0
  4664  0EA5  07F3               	addwf	i1servo1Rotate0@i+1,f
  4665  0EA6  3000               	movlw	0
  4666  0EA7  0273               	subwf	i1servo1Rotate0@i+1,w
  4667  0EA8  3032               	movlw	50
  4668  0EA9  1903               	skipnz
  4669  0EAA  0272               	subwf	i1servo1Rotate0@i,w
  4670  0EAB  1C03               	skipc
  4671  0EAC  2EAE               	goto	u59_21
  4672  0EAD  2EAF               	goto	u59_20
  4673  0EAE                     u59_21:
  4674  0EAE  2E89               	goto	i1l201
  4675  0EAF                     u59_20:
  4676  0EAF                     i1l203:
  4677  0EAF  0008               	return
  4678  0EB0                     __end_ofi1_servo1Rotate0:
  4679  007E                     btemp	set	126	;btemp
  4680  007E                     wtemp0	set	126
  4681                           
  4682                           	psect	config
  4683                           
  4684                           ;Config register CONFIG1 @ 0x2007
  4685                           ;	Oscillator Selection bits
  4686                           ;	FOSC = INTRC_NOCLKOUT, INTOSCIO oscillator: I/O function on RA6/OSC2/CLKOUT pin, I/O f
      +                          unction on RA7/OSC1/CLKIN
  4687                           ;	Watchdog Timer Enable bit
  4688                           ;	WDTE = OFF, WDT disabled and can be enabled by SWDTEN bit of the WDTCON register
  4689                           ;	Power-up Timer Enable bit
  4690                           ;	PWRTE = OFF, PWRT disabled
  4691                           ;	RE3/MCLR pin function select bit
  4692                           ;	MCLRE = OFF, RE3/MCLR pin function is digital input, MCLR internally tied to VDD
  4693                           ;	Code Protection bit
  4694                           ;	CP = OFF, Program memory code protection is disabled
  4695                           ;	Data Code Protection bit
  4696                           ;	CPD = OFF, Data memory code protection is disabled
  4697                           ;	Brown Out Reset Selection bits
  4698                           ;	BOREN = OFF, BOR disabled
  4699                           ;	Internal External Switchover bit
  4700                           ;	IESO = OFF, Internal/External Switchover mode is disabled
  4701                           ;	Fail-Safe Clock Monitor Enabled bit
  4702                           ;	FCMEN = OFF, Fail-Safe Clock Monitor is disabled
  4703                           ;	Low Voltage Programming Enable bit
  4704                           ;	LVP = ON, RB3/PGM pin has PGM function, low voltage programming enabled
  4705                           ;	In-Circuit Debugger Mode bit
  4706                           ;	DEBUG = 0x1, unprogrammed default
  4707  2007                     	org	8199
  4708  2007  30D4               	dw	12500
  4709                           
  4710                           ;Config register CONFIG2 @ 0x2008
  4711                           ;	Brown-out Reset Selection bit
  4712                           ;	BOR4V = BOR40V, Brown-out Reset set to 4.0V
  4713                           ;	Flash Program Memory Self Write Enable bits
  4714                           ;	WRT = OFF, Write protection off
  4715  2008                     	org	8200
  4716  2008  3FFF               	dw	16383

Data Sizes:
    Strings     510
    Constant    0
    Data        2
    BSS         10
    Persistent  0
    Stack       0

Auto Spaces:
    Space          Size  Autos    Used
    COMMON           14      8      14
    BANK0            80     11      17
    BANK1            80      0       0
    BANK3            96      0       0
    BANK2            96      0       0

Pointer List with Targets:

    send_str@st	PTR unsigned char  size(2) Largest target is 36
		 -> STR_22(CODE[6]), STR_21(CODE[22]), STR_20(CODE[21]), STR_19(CODE[24]), 
		 -> STR_18(CODE[23]), STR_17(CODE[22]), STR_16(CODE[21]), STR_15(CODE[24]), 
		 -> STR_14(CODE[23]), STR_13(CODE[19]), STR_12(CODE[7]), STR_11(CODE[32]), 
		 -> STR_10(CODE[30]), STR_9(CODE[28]), STR_8(CODE[27]), STR_7(CODE[14]), 
		 -> STR_6(CODE[36]), STR_5(CODE[33]), STR_4(CODE[31]), STR_3(CODE[29]), 
		 -> STR_2(CODE[16]), STR_1(CODE[28]), 


Critical Paths under _main in COMMON

    None.

Critical Paths under _isr in COMMON

    _isr->i1_servo1Rotate0
    _isr->i1_servo1Rotate90
    _isr->i1_servo2Rotate0
    _isr->i1_servo2Rotate90
    _isr->i1_servo3Rotate0
    _isr->i1_servo3Rotate90
    _isr->i1_servo4Rotate0
    _isr->i1_servo4Rotate90

Critical Paths under _main in BANK0

    _main->_send_str
    _send_str->_send_char

Critical Paths under _isr in BANK0

    None.

Critical Paths under _main in BANK1

    None.

Critical Paths under _isr in BANK1

    None.

Critical Paths under _main in BANK3

    None.

Critical Paths under _isr in BANK3

    None.

Critical Paths under _main in BANK2

    None.

Critical Paths under _isr in BANK2

    None.

Call Graph Tables:

 ---------------------------------------------------------------------------------
 (Depth) Function   	        Calls       Base Space   Used Autos Params    Refs
 ---------------------------------------------------------------------------------
 (0) _main                                                 3     3      0    2152
                                              8 BANK0      3     3      0
                           _send_str
                      _servo1Rotate0
                     _servo1Rotate90
                      _servo2Rotate0
                     _servo2Rotate90
                      _servo3Rotate0
                     _servo3Rotate90
                      _servo4Rotate0
                     _servo4Rotate90
                              _setup
 ---------------------------------------------------------------------------------
 (1) _setup                                                1     1      0       0
                                              0 BANK0      1     1      0
 ---------------------------------------------------------------------------------
 (1) _servo4Rotate90                                       4     4      0      46
                                              0 BANK0      4     4      0
 ---------------------------------------------------------------------------------
 (1) _servo4Rotate0                                        4     4      0      46
                                              0 BANK0      4     4      0
 ---------------------------------------------------------------------------------
 (1) _servo3Rotate90                                       4     4      0      46
                                              0 BANK0      4     4      0
 ---------------------------------------------------------------------------------
 (1) _servo3Rotate0                                        4     4      0      46
                                              0 BANK0      4     4      0
 ---------------------------------------------------------------------------------
 (1) _servo2Rotate90                                       4     4      0      46
                                              0 BANK0      4     4      0
 ---------------------------------------------------------------------------------
 (1) _servo2Rotate0                                        4     4      0      46
                                              0 BANK0      4     4      0
 ---------------------------------------------------------------------------------
 (1) _servo1Rotate90                                       4     4      0      46
                                              0 BANK0      4     4      0
 ---------------------------------------------------------------------------------
 (1) _servo1Rotate0                                        4     4      0      46
                                              0 BANK0      4     4      0
 ---------------------------------------------------------------------------------
 (1) _send_str                                             7     5      2    1784
                                              1 BANK0      7     5      2
                          _send_char
 ---------------------------------------------------------------------------------
 (2) _send_char                                            1     1      0      22
                                              0 BANK0      1     1      0
 ---------------------------------------------------------------------------------
 Estimated maximum stack depth 2
 ---------------------------------------------------------------------------------
 (Depth) Function   	        Calls       Base Space   Used Autos Params    Refs
 ---------------------------------------------------------------------------------
 (3) _isr                                                  4     4      0     368
                                              4 COMMON     4     4      0
                    i1_servo1Rotate0
                   i1_servo1Rotate90
                    i1_servo2Rotate0
                   i1_servo2Rotate90
                    i1_servo3Rotate0
                   i1_servo3Rotate90
                    i1_servo4Rotate0
                   i1_servo4Rotate90
 ---------------------------------------------------------------------------------
 (4) i1_servo4Rotate90                                     4     4      0      46
                                              0 COMMON     4     4      0
 ---------------------------------------------------------------------------------
 (4) i1_servo4Rotate0                                      4     4      0      46
                                              0 COMMON     4     4      0
 ---------------------------------------------------------------------------------
 (4) i1_servo3Rotate90                                     4     4      0      46
                                              0 COMMON     4     4      0
 ---------------------------------------------------------------------------------
 (4) i1_servo3Rotate0                                      4     4      0      46
                                              0 COMMON     4     4      0
 ---------------------------------------------------------------------------------
 (4) i1_servo2Rotate90                                     4     4      0      46
                                              0 COMMON     4     4      0
 ---------------------------------------------------------------------------------
 (4) i1_servo2Rotate0                                      4     4      0      46
                                              0 COMMON     4     4      0
 ---------------------------------------------------------------------------------
 (4) i1_servo1Rotate90                                     4     4      0      46
                                              0 COMMON     4     4      0
 ---------------------------------------------------------------------------------
 (4) i1_servo1Rotate0                                      4     4      0      46
                                              0 COMMON     4     4      0
 ---------------------------------------------------------------------------------
 Estimated maximum stack depth 4
 ---------------------------------------------------------------------------------

 Call Graph Graphs:

 _main (ROOT)
   _send_str
     _send_char
   _servo1Rotate0
   _servo1Rotate90
   _servo2Rotate0
   _servo2Rotate90
   _servo3Rotate0
   _servo3Rotate90
   _servo4Rotate0
   _servo4Rotate90
   _setup

 _isr (ROOT)
   i1_servo1Rotate0
   i1_servo1Rotate90
   i1_servo2Rotate0
   i1_servo2Rotate90
   i1_servo3Rotate0
   i1_servo3Rotate90
   i1_servo4Rotate0
   i1_servo4Rotate90

 Address spaces:
Name               Size   Autos  Total    Cost      Usage
BANK3               60      0       0       9        0.0%
BITBANK3            60      0       0       8        0.0%
SFR3                 0      0       0       4        0.0%
BITSFR3              0      0       0       4        0.0%
BANK2               60      0       0      11        0.0%
BITBANK2            60      0       0      10        0.0%
SFR2                 0      0       0       5        0.0%
BITSFR2              0      0       0       5        0.0%
BANK1               50      0       0       7        0.0%
BITBANK1            50      0       0       6        0.0%
SFR1                 0      0       0       2        0.0%
BITSFR1              0      0       0       2        0.0%
BANK0               50      B      11       5       21.2%
BITBANK0            50      0       0       4        0.0%
SFR0                 0      0       0       1        0.0%
BITSFR0              0      0       0       1        0.0%
COMMON               E      8       E       1      100.0%
BITCOMMON            E      0       0       0        0.0%
CODE                 0      0       0       0        0.0%
DATA                 0      0      1F      12        0.0%
ABS                  0      0      1F       3        0.0%
NULL                 0      0       0       0        0.0%
STACK                0      0       0       2        0.0%
EEDATA             100      0       0       0        0.0%


Microchip Technology PIC Macro Assembler V2.31 build 20201012212115 
Symbol Table                                                                                   Fri Jun 04 21:12:22 2021

                        pc 0002                         _op 002B                         fsr 0004  
                      l201 0FD7                        l203 0FFF                        l211 02D7  
                      l213 02FF                        l221 02AA                        l206 07B5  
                      l223 02D2                        l231 027D                        l208 07DF  
                      l216 0786                        l233 02A5                        l218 07B0  
                      l226 0757                        l228 0781                        l236 0728  
                      l238 0752                        l183 06AD                        l192 07FB  
                      l185 06B1                        l186 06DD                        l189 07F5  
                      l198 0723                        u500 0752                        u501 0751  
                      u510 0FFF                        _PR2 0092                        u511 0FFE  
                      u520 07DF                        u521 07DE                        u530 02FF  
                      u531 02FE                        u460 07F9                        u540 07B0  
                      u461 07F8                        u541 07AF                        u470 02D2  
                      u550 06B1                        u471 02D1                        u551 06B0  
                      u560 06ED                        u480 0781                        u481 0780  
                      u570 0711                        u490 02A5                        u491 02A4  
                      u580 0723                        u900 00B7                        u581 0722  
                      u901 00B6                        u840 0039                        u841 0038  
                      u850 0042                        u851 0041                        u860 0054  
                      u917 009B                        u861 0053                        u870 0066  
                      u927 00A9                        u871 0065                        u880 0074  
                      u937 0168                        u881 0073                        u890 008C  
                      u947 019B                        u891 008B                        u957 0243  
                      u967 0689                        u977 072F                        u987 073D  
                      u997 0282                        _ban 002F                        _rec 0078  
                      _isr 04FE                        fsr0 0004                        indf 0000  
  __end_ofi1_servo1Rotate0 0EB0                       l2000 0225    __end_ofi1_servo2Rotate0 0ED9  
                     l2010 022B                       l2020 024E                       l2012 022E  
                     l2014 0232                       l2016 023B                       l2018 024A  
                     l2028 0254                       l1502 07B6                       l2054 0259  
                     l1504 07C1                       l1512 02D8                       l1600 06BB  
                     l1442 07F5                       l1514 02E1                       l1506 02D3  
                     l1522 0787                       l1610 06C5                       l1602 06BF  
                     l1530 0658                       l1444 07F9                       l1524 0792  
                     l1516 0782                       l1452 02AB                       l1620 06CC  
                     l1612 06C8                       l1604 06C0                       l1540 066C  
                     l1532 065C                       l1454 02B4                       l1446 02A6  
                     l1462 0758                       l1630 06D1                       l1622 06CD  
                     l1614 06C9                       l1606 06C3                       l1550 0671  
                     l1542 066D                       l1534 065E                       l1526 0653  
                     l1640 06E3                       l1464 0763                       l1456 0753  
                     l1472 027E                       l1632 06D4                       l1624 06CE  
                     l1616 06CA                       l1608 06C4                       l1560 067B  
                     l1552 0672                       l1544 066E                       l1536 0662  
                     l1528 0657                       l1642 06FF                       l1474 0287  
                     l1466 0279                       l1482 0729                       l1634 06D7  
                     l1626 06CF                       l1618 06CB                       l1570 068C  
                     l1562 067C                       l1554 0673                       l1546 066F  
                     l1538 0669                       l1644 0707                       l1492 0FD8  
                     l1484 0734                       l1476 0724                       l1636 06DA  
                     l1628 06D0                       l1580 0699                       l1572 068F  
                     l1564 067D                       l1556 0674                       l1548 0670  
                     l1900 0179                       l1638 06DE                       l1494 0FE1  
                     l1486 0FD3                       l1590 06A7                       l1582 069D  
                     l1574 0692                       l1566 0683                       l1558 0678  
                     l1910 0193                       l1902 017E                       l1496 07B1  
                     l1592 06A8                       l1584 06A1                       l1576 0693  
                     l1568 0685                       l1920 01AE                       l1912 01A2  
                     l1904 0181                       l1840 0042                       l1832 0029  
                     l1594 06A9                       l1586 06A3                       l1578 0695  
                     l1922 01B7                       l1906 0185                       l1850 005D  
                     l1842 0046                       l1834 002E                       l1596 06AA  
                     l1588 06A5                       l1932 01BD                       l1916 01A7  
                     l1908 018E                       l1860 007A                       l1852 0066  
                     l1844 004B                       l1836 0034                       l1598 06AC  
                     l1950 01D6                       l1934 01C0                       l1918 01AA  
                     l1870 0092                       l1854 006A                       l1862 0080  
                     l1846 0054                       l1838 0039                       l1952 01DA  
                     l1936 01C4                       l1880 00B7                       l1864 0082  
                     l1856 006E                       l1848 0058                       l1872 0097  
                     l1962 01E9                       l1954 01E3                       l1938 01CD  
                     l1890 0152                       l1882 0144                       l1874 009E  
                     l1866 0086                       l1858 0074                       l1980 0202  
                     l1964 01EC                       l1948 01D3                       l1892 015B  
                     l1884 0148                       l1868 008C                       l1876 00A1  
                     l1982 0206                       l1966 01F0                       l1894 0160  
                     l1886 014B                       l1878 00AF                       l1984 020F  
                     l1968 01F9                       l1896 016F                       l1888 014E  
                     l1994 0215                       l1978 01FF                       l1898 0173  
                     l1996 0218                       l1998 021C                       ?_isr 0070  
                     STR_1 03DB                       STR_2 04D9                       STR_3 03A2  
                     STR_4 0365                       STR_5 0324                       STR_6 0300  
                     STR_7 04E9                       STR_8 03F7                       STR_9 03BF  
  __end_ofi1_servo3Rotate0 0F02                       u1007 0290                       u1017 075E  
                     u1107 07CA                       u1027 076C                       u1117 0FDC  
                     u1037 02AF                       u1127 0FEA                       u1047 02BD  
                     u1057 078D                       u1067 079B                       u1077 02DC  
                     u1087 02EA                       u1097 07BC                       _RBIF 0058  
                     _TMR0 0001    __end_ofi1_servo4Rotate0 0F2B                       _TXIF 0064  
                     _adc1 007D                       _adc2 007C                       _adc3 007B  
                     _adc4 007A                       _main 0029                       _play 002D  
                     btemp 007E                       start 000C                      ??_isr 0074  
 __end_ofi1_servo1Rotate90 0F55   __end_ofi1_servo2Rotate90 0F7F                      ?_main 0070  
                    STR_10 0384                      STR_11 0345                      STR_12 04F7  
                    STR_20 04B1                      STR_13 04C6                      STR_21 0486  
                    STR_22 04D3                      STR_14 0442                      STR_15 0412  
                    STR_16 049C                      STR_17 0470                      STR_18 0459  
                    STR_19 042A                      _ANSEL 0188   __end_ofi1_servo3Rotate90 0FA9  
                    i1l201 0E89                      i1l203 0EAF                      i1l211 0EB2  
                    i1l213 0ED8                      i1l221 0EDB                      i1l141 05EA  
                    i1l206 0F2D                      i1l223 0F01                      i1l231 0F04  
                    i1l208 0F54                      i1l216 0F57                      i1l233 0F2A  
                    i1l218 0F7E                      i1l226 0F81                      i1l228 0FA8  
                    i1l236 0FAB                      i1l149 064C                      i1l238 0FD2  
                    _RCREG 001A                      _SPBRG 0099   __end_ofi1_servo4Rotate90 0FD3  
                    _PORTA 0005                      _PORTB 0006                      _PORTC 0007  
                    _PORTD 0008                      u60_20 0F54                      u60_21 0F53  
                    u61_20 0ED8                      u61_21 0ED7                      u62_20 0F7E  
                    u70_20 0519                      u62_21 0F7D                      u70_21 0518  
                    u63_20 0F01                      u71_20 0529                      u63_21 0F00  
                    u71_21 0528                      u64_20 0FA8                      u80_20 05FA  
                    u72_20 0546                      u64_21 0FA7                      u80_21 05F9  
                    u72_21 0545                      u65_20 0F2A                      u73_20 0563  
                    u65_21 0F29                      u73_21 0562                      _TRISA 0085  
                    _TRISB 0086                      u81_25 060F                      _TRISC 0087  
                    _TRISD 0088                      _TRISE 0089                      u66_20 0FD2  
                    u82_20 0628                      u74_20 057E                      u66_21 0FD1  
                    u82_21 0627                      u74_21 057D                      u59_20 0EAF  
                    u75_20 0598                      u67_20 0504                      u59_21 0EAE  
                    u75_21 0597                      u67_21 0503                      u83_25 063D  
                    u76_20 05A1                      u68_20 050F                      u76_21 05A0  
                    u68_21 050E                      u77_20 05A7                      u69_20 0513  
                    u77_21 05A6                      u69_21 0512                      u78_20 05E6  
                    u78_21 05E5                      u79_20 05F0                      u79_21 05EF  
                    _TXREG 0019                      _setup 0653                      pclath 000A  
                    status 0003                      wtemp0 007E            __initialization 000F  
             __end_of_main 0279                     ??_main 0028                     _ADRESH 001E  
                   _ADRESL 009E                     _CCPR1L 0015                     _CCPR2L 001B  
         ?i1_servo1Rotate0 0070                     ?_setup 0070                     _ANSELH 0189  
         ?i1_servo2Rotate0 0070           ?i1_servo3Rotate0 0070                     i1l1702 0F84  
                   u120_27 05DB                     i1l1704 0F8D                     i1l1712 0F07  
                   i1l1800 05B3                     i1l1714 0F0F                     i1l1706 0F02  
                   i1l1722 0FAE                     i1l1810 05D3                     i1l1802 05BB  
                   i1l1730 050B                     i1l1652 0E8C                     i1l1724 0FB7  
                   i1l1716 0FA9                     i1l1812 05D7                     i1l1804 05BF  
                   i1l1740 0521                     i1l1732 050F                     i1l1820 05EA  
                   i1l1654 0E94                     i1l1646 0E87                     i1l1662 0F30  
                   i1l1830 0628                     i1l1822 05F0                     i1l1806 05C7  
                   i1l1814 05E0                     i1l1750 0534                     i1l1742 0522  
                   i1l1734 0513                     i1l1726 04FE                     u121_27 0FB2  
                   u113_27 0538                     i1l1664 0F39                     i1l1656 0F2B  
                   i1l1672 0EB5                     i1l1824 05F1                     i1l1816 05E6  
                   i1l1808 05CB                     i1l1760 0551                     i1l1752 053C  
                   i1l1744 0523                     i1l1736 0519                     i1l1728 0504  
                   i1l1674 0EBD                     i1l1666 0EB0                     i1l1682 0F5A  
                   i1l1826 05FA                     i1l1818 05E8                     i1l1770 056E  
                   i1l1762 0559                     i1l1754 0540                     i1l1746 0529  
                   i1l1738 051F                     i1l1684 0F63                     i1l1676 0F55  
                   i1l1692 0EDE                     i1l1828 061F                     i1l1772 0576  
                   i1l1764 055D                     i1l1756 0546                     i1l1748 052F  
                   i1l1780 0592                     i1l1694 0EE6                     i1l1686 0ED9  
                   i1l1790 05A7                     i1l1782 0598                     i1l1774 057E  
                   i1l1766 0563                     i1l1758 054C                     u130_27 0F6A  
                   u122_27 0FBE                     u114_27 0555                     i1l1696 0F7F  
                   i1l1792 05A9                     i1l1784 059A                     i1l1776 0584  
                   i1l1768 0569                     i1l1794 05AF                     i1l1778 0589  
                   i1l1786 059B                     i1l1796 05B0                     i1l1788 05A1  
                   i1l1798 05B1                     u131_27 0EB7                     u123_27 0F09  
                   u115_27 0572                     u132_27 0EC4                     u124_27 0F16  
                   u116_27 058D                     u133_27 0F34                     u125_27 0F88  
                   u117_27 05B7                     u134_27 0F40                     u126_27 0F94  
                   u118_27 05C3                     u135_27 0E8E                     u127_27 0EE0  
                   u119_27 05CF                     u136_27 0E9B                     u128_27 0EED  
                   u129_27 0F5E           ?i1_servo4Rotate0 0070                     _SPBRGH 009A  
         __end_of_send_str 0724                     saved_w 007E    __end_of__initialization 0025  
           __pcstackCOMMON 0070               __pidataBANK0 07FC              __end_of_setup 06DE  
          servo1Rotate90@i 0022             _OPTION_REGbits 0081            servo2Rotate90@i 0022  
    __end_of_servo1Rotate0 1000      __end_of_servo2Rotate0 0300      __end_of_servo3Rotate0 02D3  
                  ??_setup 0020      __end_of_servo4Rotate0 02A6                 __pbssBANK0 002B  
          servo3Rotate90@i 0022            servo4Rotate90@i 0022                 __pmaintext 0029  
               __pintentry 0004         __size_of_send_char 000A          ?i1_servo1Rotate90 0070  
  __size_of_servo1Rotate90 002F          ?i1_servo2Rotate90 0070    __size_of_servo2Rotate90 002F  
       ??i1_servo1Rotate90 0070          ?i1_servo3Rotate90 0070    __size_of_servo3Rotate90 002F  
       ??i1_servo2Rotate90 0070          ?i1_servo4Rotate90 0070    __size_of_servo4Rotate90 002F  
       ??i1_servo3Rotate90 0070         ??i1_servo4Rotate90 0070                 __stringtab 07E0  
                ?_send_str 0021                    __ptext1 0653                    __ptext2 0724  
                  __ptext3 0279                    __ptext4 0753                    __ptext5 02A6  
                  __ptext6 0782                    __ptext7 02D3                    __ptext8 07B1  
                  __ptext9 0FD3                  _T2CONbits 0012               __size_of_isr 0155  
     end_of_initialization 0025          __end_of_send_char 07FC                 ??_send_str 0023  
                _RCSTAbits 0018               __pstringtext 0300              send_char@dato 0020  
                _PORTBbits 0006                  _PORTCbits 0007                  _PORTDbits 0008  
                _TRISCbits 0087                _CCP1CONbits 0017                _CCP2CONbits 001D  
                _TXSTAbits 0098   __size_ofi1_servo1Rotate0 0029   __size_ofi1_servo2Rotate0 0029  
 __size_ofi1_servo3Rotate0 0029   __size_ofi1_servo4Rotate0 0029                _BAUDCTLbits 0187  
           _servo1Rotate90 07B1             _servo2Rotate90 0782             _servo3Rotate90 0753  
      start_initialization 000F             _servo4Rotate90 0724                __end_of_isr 0653  
   __end_of_servo1Rotate90 07E0                __pdataBANK0 002F     __end_of_servo2Rotate90 07B1  
   __end_of_servo3Rotate90 0782     __end_of_servo4Rotate90 0753                __pbssCOMMON 0078  
                ___latbits 0002              __pcstackBANK0 0020             servo1Rotate0@i 0022  
__size_ofi1_servo1Rotate90 002A             servo2Rotate0@i 0022  __size_ofi1_servo2Rotate90 002A  
__size_ofi1_servo3Rotate90 002A             servo3Rotate0@i 0022  __size_ofi1_servo4Rotate90 002A  
           servo4Rotate0@i 0022          __size_of_send_str 0046            ?_servo1Rotate90 0070  
   __size_of_servo1Rotate0 002D     __size_of_servo2Rotate0 002D          ??i1_servo1Rotate0 0070  
          ?_servo2Rotate90 0070     __size_of_servo3Rotate0 002D          ??i1_servo2Rotate0 0070  
   __size_of_servo4Rotate0 002D          ??i1_servo3Rotate0 0070                  __pstrings 07E0  
          ?_servo3Rotate90 0070          ??i1_servo4Rotate0 0070            ?_servo4Rotate90 0070  
               send_str@st 0021             __size_of_setup 008B          interrupt_function 0004  
                 _IOCBbits 0096                   _PIE1bits 008C                  _send_char 07F2  
                 _PIR1bits 000C                 _ADCON0bits 001F                __stringbase 07F2  
               _ADCON1bits 009F                   _WPUBbits 0095              _servo1Rotate0 0FD3  
            _servo2Rotate0 02D3              _servo3Rotate0 02A6              _servo4Rotate0 0279  
               ?_send_char 0070         __end_of__stringtab 07F2                   __ptext10 06DE  
                 __ptext11 07F2                   __ptext20 0E87                   __ptext12 04FE  
                 __ptext13 0FA9                   __ptext14 0F02                   __ptext15 0F7F  
                 __ptext16 0ED9                   __ptext17 0F55                   __ptext18 0EB0  
                 __ptext19 0F2B             ?_servo1Rotate0 0070             ?_servo2Rotate0 0070  
           ?_servo3Rotate0 0070             ?_servo4Rotate0 0070           i1_servo1Rotate90 0F2B  
                send_str@i 0026           i1_servo2Rotate90 0F55              __size_of_main 0250  
         i1_servo3Rotate90 0F7F           i1_servo4Rotate90 0FA9                   _send_str 06DE  
        i1servo1Rotate90@i 0072          i1servo2Rotate90@i 0072                 _INTCONbits 000B  
        i1servo3Rotate90@i 0072                   intlevel1 0000          i1servo4Rotate90@i 0072  
          i1_servo1Rotate0 0E87                ??_send_char 0020            i1_servo2Rotate0 0EB0  
          i1_servo3Rotate0 0ED9           ??_servo1Rotate90 0020                  stringcode 07EA  
          i1_servo4Rotate0 0F02                 _OSCCONbits 008F           ??_servo2Rotate90 0020  
         i1servo1Rotate0@i 0072           ??_servo3Rotate90 0020           ??_servo4Rotate90 0020  
         i1servo2Rotate0@i 0072           i1servo3Rotate0@i 0072           i1servo4Rotate0@i 0072  
          ??_servo1Rotate0 0020                   stringtab 07E0            ??_servo2Rotate0 0020  
          ??_servo3Rotate0 0020            ??_servo4Rotate0 0020  
